
stm32f103x8.axf:     file format elf32-littlearm


Disassembly of section .isr_vector:

08000000 <g_pfnVectors>:
 8000000:	20005000 	andcs	r5, r0, r0
 8000004:	08001029 	stmdaeq	r0, {r0, r3, r5, ip}
 8000008:	08001079 	stmdaeq	r0, {r0, r3, r4, r5, r6, ip}
 800000c:	08001079 	stmdaeq	r0, {r0, r3, r4, r5, r6, ip}
 8000010:	08001079 	stmdaeq	r0, {r0, r3, r4, r5, r6, ip}
 8000014:	08001079 	stmdaeq	r0, {r0, r3, r4, r5, r6, ip}
 8000018:	08001079 	stmdaeq	r0, {r0, r3, r4, r5, r6, ip}
	...
 800002c:	08001079 	stmdaeq	r0, {r0, r3, r4, r5, r6, ip}
 8000030:	08001079 	stmdaeq	r0, {r0, r3, r4, r5, r6, ip}
 8000034:	00000000 	andeq	r0, r0, r0
 8000038:	08001079 	stmdaeq	r0, {r0, r3, r4, r5, r6, ip}
 800003c:	08001079 	stmdaeq	r0, {r0, r3, r4, r5, r6, ip}
 8000040:	08001079 	stmdaeq	r0, {r0, r3, r4, r5, r6, ip}
 8000044:	08001079 	stmdaeq	r0, {r0, r3, r4, r5, r6, ip}
 8000048:	08001079 	stmdaeq	r0, {r0, r3, r4, r5, r6, ip}
 800004c:	08001079 	stmdaeq	r0, {r0, r3, r4, r5, r6, ip}
 8000050:	08001079 	stmdaeq	r0, {r0, r3, r4, r5, r6, ip}
 8000054:	08001079 	stmdaeq	r0, {r0, r3, r4, r5, r6, ip}
 8000058:	08000555 	stmdaeq	r0, {r0, r2, r4, r6, r8, sl}
 800005c:	08000579 	stmdaeq	r0, {r0, r3, r4, r5, r6, r8, sl}
 8000060:	0800059d 	stmdaeq	r0, {r0, r2, r3, r4, r7, r8, sl}
 8000064:	080005c1 	stmdaeq	r0, {r0, r6, r7, r8, sl}
 8000068:	080005e5 	stmdaeq	r0, {r0, r2, r5, r6, r7, r8, sl}
 800006c:	08001079 	stmdaeq	r0, {r0, r3, r4, r5, r6, ip}
 8000070:	08001079 	stmdaeq	r0, {r0, r3, r4, r5, r6, ip}
 8000074:	08001079 	stmdaeq	r0, {r0, r3, r4, r5, r6, ip}
 8000078:	08001079 	stmdaeq	r0, {r0, r3, r4, r5, r6, ip}
 800007c:	08001079 	stmdaeq	r0, {r0, r3, r4, r5, r6, ip}
 8000080:	08001079 	stmdaeq	r0, {r0, r3, r4, r5, r6, ip}
 8000084:	08001079 	stmdaeq	r0, {r0, r3, r4, r5, r6, ip}
 8000088:	08001079 	stmdaeq	r0, {r0, r3, r4, r5, r6, ip}
 800008c:	08001079 	stmdaeq	r0, {r0, r3, r4, r5, r6, ip}
 8000090:	08001079 	stmdaeq	r0, {r0, r3, r4, r5, r6, ip}
 8000094:	08001079 	stmdaeq	r0, {r0, r3, r4, r5, r6, ip}
 8000098:	08001079 	stmdaeq	r0, {r0, r3, r4, r5, r6, ip}
 800009c:	08000609 	stmdaeq	r0, {r0, r3, r9, sl}
 80000a0:	08001079 	stmdaeq	r0, {r0, r3, r4, r5, r6, ip}
 80000a4:	08001079 	stmdaeq	r0, {r0, r3, r4, r5, r6, ip}
 80000a8:	08001079 	stmdaeq	r0, {r0, r3, r4, r5, r6, ip}
 80000ac:	08001079 	stmdaeq	r0, {r0, r3, r4, r5, r6, ip}
 80000b0:	08000a3d 	stmdaeq	r0, {r0, r2, r3, r4, r5, r9, fp}
 80000b4:	08000aa1 	stmdaeq	r0, {r0, r5, r7, r9, fp}
 80000b8:	08000af9 	stmdaeq	r0, {r0, r3, r4, r5, r6, r7, r9, fp}
 80000bc:	08000b51 	stmdaeq	r0, {r0, r4, r6, r8, r9, fp}
 80000c0:	08000c49 	stmdaeq	r0, {r0, r3, r6, sl, fp}
 80000c4:	08000d3d 	stmdaeq	r0, {r0, r2, r3, r4, r5, r8, sl, fp}
 80000c8:	08000e39 	stmdaeq	r0, {r0, r3, r4, r5, r9, sl, fp}
 80000cc:	08000f31 	stmdaeq	r0, {r0, r4, r5, r8, r9, sl, fp}
 80000d0:	08000f45 	stmdaeq	r0, {r0, r2, r6, r8, r9, sl, fp}
 80000d4:	08000f59 	stmdaeq	r0, {r0, r3, r4, r6, r8, r9, sl, fp}
 80000d8:	08000f6d 	stmdaeq	r0, {r0, r2, r3, r5, r6, r8, r9, sl, fp}
 80000dc:	08000f81 	stmdaeq	r0, {r0, r7, r8, r9, sl, fp}
 80000e0:	080006b1 	stmdaeq	r0, {r0, r4, r5, r7, r9, sl}
 80000e4:	08001079 	stmdaeq	r0, {r0, r3, r4, r5, r6, ip}
 80000e8:	00000000 	andeq	r0, r0, r0
 80000ec:	08001079 	stmdaeq	r0, {r0, r3, r4, r5, r6, ip}
 80000f0:	08001079 	stmdaeq	r0, {r0, r3, r4, r5, r6, ip}
 80000f4:	08001079 	stmdaeq	r0, {r0, r3, r4, r5, r6, ip}
 80000f8:	08001079 	stmdaeq	r0, {r0, r3, r4, r5, r6, ip}
 80000fc:	08001079 	stmdaeq	r0, {r0, r3, r4, r5, r6, ip}
 8000100:	08001079 	stmdaeq	r0, {r0, r3, r4, r5, r6, ip}
 8000104:	08001079 	stmdaeq	r0, {r0, r3, r4, r5, r6, ip}
 8000108:	08001079 	stmdaeq	r0, {r0, r3, r4, r5, r6, ip}
 800010c:	08001079 	stmdaeq	r0, {r0, r3, r4, r5, r6, ip}
 8000110:	08001079 	stmdaeq	r0, {r0, r3, r4, r5, r6, ip}
 8000114:	08001079 	stmdaeq	r0, {r0, r3, r4, r5, r6, ip}
 8000118:	08001079 	stmdaeq	r0, {r0, r3, r4, r5, r6, ip}
 800011c:	08001079 	stmdaeq	r0, {r0, r3, r4, r5, r6, ip}
 8000120:	08001079 	stmdaeq	r0, {r0, r3, r4, r5, r6, ip}
 8000124:	08001079 	stmdaeq	r0, {r0, r3, r4, r5, r6, ip}
 8000128:	08001079 	stmdaeq	r0, {r0, r3, r4, r5, r6, ip}
 800012c:	08001079 	stmdaeq	r0, {r0, r3, r4, r5, r6, ip}

Disassembly of section .text:

08000130 <__do_global_dtors_aux>:
 8000130:	b510      	push	{r4, lr}
 8000132:	4c05      	ldr	r4, [pc, #20]	; (8000148 <__do_global_dtors_aux+0x18>)
 8000134:	7823      	ldrb	r3, [r4, #0]
 8000136:	b933      	cbnz	r3, 8000146 <__do_global_dtors_aux+0x16>
 8000138:	4b04      	ldr	r3, [pc, #16]	; (800014c <__do_global_dtors_aux+0x1c>)
 800013a:	b113      	cbz	r3, 8000142 <__do_global_dtors_aux+0x12>
 800013c:	4804      	ldr	r0, [pc, #16]	; (8000150 <__do_global_dtors_aux+0x20>)
 800013e:	f3af 8000 	nop.w
 8000142:	2301      	movs	r3, #1
 8000144:	7023      	strb	r3, [r4, #0]
 8000146:	bd10      	pop	{r4, pc}
 8000148:	20000000 	andcs	r0, r0, r0
 800014c:	00000000 	andeq	r0, r0, r0
 8000150:	080010c4 	stmdaeq	r0, {r2, r6, r7, ip}

08000154 <frame_dummy>:
 8000154:	b508      	push	{r3, lr}
 8000156:	4b03      	ldr	r3, [pc, #12]	; (8000164 <frame_dummy+0x10>)
 8000158:	b11b      	cbz	r3, 8000162 <frame_dummy+0xe>
 800015a:	4903      	ldr	r1, [pc, #12]	; (8000168 <frame_dummy+0x14>)
 800015c:	4803      	ldr	r0, [pc, #12]	; (800016c <frame_dummy+0x18>)
 800015e:	f3af 8000 	nop.w
 8000162:	bd08      	pop	{r3, pc}
 8000164:	00000000 	andeq	r0, r0, r0
 8000168:	20000004 	andcs	r0, r0, r4
 800016c:	080010c4 	stmdaeq	r0, {r2, r6, r7, ip}

08000170 <EXTI_NVIC_EN>:
 8000170:	b480      	push	{r7}
 8000172:	b083      	sub	sp, #12
 8000174:	af00      	add	r7, sp, #0
 8000176:	4603      	mov	r3, r0
 8000178:	71fb      	strb	r3, [r7, #7]
 800017a:	79fb      	ldrb	r3, [r7, #7]
 800017c:	2b0f      	cmp	r3, #15
 800017e:	d854      	bhi.n	800022a <EXTI_NVIC_EN+0xba>
 8000180:	a201      	add	r2, pc, #4	; (adr r2, 8000188 <EXTI_NVIC_EN+0x18>)
 8000182:	f852 f023 	ldr.w	pc, [r2, r3, lsl #2]
 8000186:	bf00      	nop
 8000188:	080001c9 	stmdaeq	r0, {r0, r3, r6, r7, r8}
 800018c:	080001d7 	stmdaeq	r0, {r0, r1, r2, r4, r6, r7, r8}
 8000190:	080001e5 	stmdaeq	r0, {r0, r2, r5, r6, r7, r8}
 8000194:	080001f3 	stmdaeq	r0, {r0, r1, r4, r5, r6, r7, r8}
 8000198:	08000201 	stmdaeq	r0, {r0, r9}
 800019c:	0800020f 	stmdaeq	r0, {r0, r1, r2, r3, r9}
 80001a0:	0800020f 	stmdaeq	r0, {r0, r1, r2, r3, r9}
 80001a4:	0800020f 	stmdaeq	r0, {r0, r1, r2, r3, r9}
 80001a8:	0800020f 	stmdaeq	r0, {r0, r1, r2, r3, r9}
 80001ac:	0800020f 	stmdaeq	r0, {r0, r1, r2, r3, r9}
 80001b0:	0800021d 	stmdaeq	r0, {r0, r2, r3, r4, r9}
 80001b4:	0800021d 	stmdaeq	r0, {r0, r2, r3, r4, r9}
 80001b8:	0800021d 	stmdaeq	r0, {r0, r2, r3, r4, r9}
 80001bc:	0800021d 	stmdaeq	r0, {r0, r2, r3, r4, r9}
 80001c0:	0800021d 	stmdaeq	r0, {r0, r2, r3, r4, r9}
 80001c4:	0800021d 	stmdaeq	r0, {r0, r2, r3, r4, r9}
 80001c8:	4b1a      	ldr	r3, [pc, #104]	; (8000234 <EXTI_NVIC_EN+0xc4>)
 80001ca:	681b      	ldr	r3, [r3, #0]
 80001cc:	4a19      	ldr	r2, [pc, #100]	; (8000234 <EXTI_NVIC_EN+0xc4>)
 80001ce:	f043 0340 	orr.w	r3, r3, #64	; 0x40
 80001d2:	6013      	str	r3, [r2, #0]
 80001d4:	e029      	b.n	800022a <EXTI_NVIC_EN+0xba>
 80001d6:	4b17      	ldr	r3, [pc, #92]	; (8000234 <EXTI_NVIC_EN+0xc4>)
 80001d8:	681b      	ldr	r3, [r3, #0]
 80001da:	4a16      	ldr	r2, [pc, #88]	; (8000234 <EXTI_NVIC_EN+0xc4>)
 80001dc:	f043 0380 	orr.w	r3, r3, #128	; 0x80
 80001e0:	6013      	str	r3, [r2, #0]
 80001e2:	e022      	b.n	800022a <EXTI_NVIC_EN+0xba>
 80001e4:	4b13      	ldr	r3, [pc, #76]	; (8000234 <EXTI_NVIC_EN+0xc4>)
 80001e6:	681b      	ldr	r3, [r3, #0]
 80001e8:	4a12      	ldr	r2, [pc, #72]	; (8000234 <EXTI_NVIC_EN+0xc4>)
 80001ea:	f443 7380 	orr.w	r3, r3, #256	; 0x100
 80001ee:	6013      	str	r3, [r2, #0]
 80001f0:	e01b      	b.n	800022a <EXTI_NVIC_EN+0xba>
 80001f2:	4b10      	ldr	r3, [pc, #64]	; (8000234 <EXTI_NVIC_EN+0xc4>)
 80001f4:	681b      	ldr	r3, [r3, #0]
 80001f6:	4a0f      	ldr	r2, [pc, #60]	; (8000234 <EXTI_NVIC_EN+0xc4>)
 80001f8:	f443 7300 	orr.w	r3, r3, #512	; 0x200
 80001fc:	6013      	str	r3, [r2, #0]
 80001fe:	e014      	b.n	800022a <EXTI_NVIC_EN+0xba>
 8000200:	4b0c      	ldr	r3, [pc, #48]	; (8000234 <EXTI_NVIC_EN+0xc4>)
 8000202:	681b      	ldr	r3, [r3, #0]
 8000204:	4a0b      	ldr	r2, [pc, #44]	; (8000234 <EXTI_NVIC_EN+0xc4>)
 8000206:	f443 6380 	orr.w	r3, r3, #1024	; 0x400
 800020a:	6013      	str	r3, [r2, #0]
 800020c:	e00d      	b.n	800022a <EXTI_NVIC_EN+0xba>
 800020e:	4b09      	ldr	r3, [pc, #36]	; (8000234 <EXTI_NVIC_EN+0xc4>)
 8000210:	681b      	ldr	r3, [r3, #0]
 8000212:	4a08      	ldr	r2, [pc, #32]	; (8000234 <EXTI_NVIC_EN+0xc4>)
 8000214:	f443 0300 	orr.w	r3, r3, #8388608	; 0x800000
 8000218:	6013      	str	r3, [r2, #0]
 800021a:	e006      	b.n	800022a <EXTI_NVIC_EN+0xba>
 800021c:	4b06      	ldr	r3, [pc, #24]	; (8000238 <EXTI_NVIC_EN+0xc8>)
 800021e:	681b      	ldr	r3, [r3, #0]
 8000220:	4a05      	ldr	r2, [pc, #20]	; (8000238 <EXTI_NVIC_EN+0xc8>)
 8000222:	f443 7380 	orr.w	r3, r3, #256	; 0x100
 8000226:	6013      	str	r3, [r2, #0]
 8000228:	bf00      	nop
 800022a:	bf00      	nop
 800022c:	370c      	adds	r7, #12
 800022e:	46bd      	mov	sp, r7
 8000230:	bc80      	pop	{r7}
 8000232:	4770      	bx	lr
 8000234:	e000e100 	and	lr, r0, r0, lsl #2
 8000238:	e000e104 	and	lr, r0, r4, lsl #2

0800023c <EXTI_NVIC_DIS>:
 800023c:	b480      	push	{r7}
 800023e:	b083      	sub	sp, #12
 8000240:	af00      	add	r7, sp, #0
 8000242:	4603      	mov	r3, r0
 8000244:	71fb      	strb	r3, [r7, #7]
 8000246:	79fb      	ldrb	r3, [r7, #7]
 8000248:	2b0f      	cmp	r3, #15
 800024a:	d854      	bhi.n	80002f6 <EXTI_NVIC_DIS+0xba>
 800024c:	a201      	add	r2, pc, #4	; (adr r2, 8000254 <EXTI_NVIC_DIS+0x18>)
 800024e:	f852 f023 	ldr.w	pc, [r2, r3, lsl #2]
 8000252:	bf00      	nop
 8000254:	08000295 	stmdaeq	r0, {r0, r2, r4, r7, r9}
 8000258:	080002a3 	stmdaeq	r0, {r0, r1, r5, r7, r9}
 800025c:	080002b1 	stmdaeq	r0, {r0, r4, r5, r7, r9}
 8000260:	080002bf 	stmdaeq	r0, {r0, r1, r2, r3, r4, r5, r7, r9}
 8000264:	080002cd 	stmdaeq	r0, {r0, r2, r3, r6, r7, r9}
 8000268:	080002db 	stmdaeq	r0, {r0, r1, r3, r4, r6, r7, r9}
 800026c:	080002db 	stmdaeq	r0, {r0, r1, r3, r4, r6, r7, r9}
 8000270:	080002db 	stmdaeq	r0, {r0, r1, r3, r4, r6, r7, r9}
 8000274:	080002db 	stmdaeq	r0, {r0, r1, r3, r4, r6, r7, r9}
 8000278:	080002db 	stmdaeq	r0, {r0, r1, r3, r4, r6, r7, r9}
 800027c:	080002e9 	stmdaeq	r0, {r0, r3, r5, r6, r7, r9}
 8000280:	080002e9 	stmdaeq	r0, {r0, r3, r5, r6, r7, r9}
 8000284:	080002e9 	stmdaeq	r0, {r0, r3, r5, r6, r7, r9}
 8000288:	080002e9 	stmdaeq	r0, {r0, r3, r5, r6, r7, r9}
 800028c:	080002e9 	stmdaeq	r0, {r0, r3, r5, r6, r7, r9}
 8000290:	080002e9 	stmdaeq	r0, {r0, r3, r5, r6, r7, r9}
 8000294:	4b1a      	ldr	r3, [pc, #104]	; (8000300 <EXTI_NVIC_DIS+0xc4>)
 8000296:	681b      	ldr	r3, [r3, #0]
 8000298:	4a19      	ldr	r2, [pc, #100]	; (8000300 <EXTI_NVIC_DIS+0xc4>)
 800029a:	f043 0340 	orr.w	r3, r3, #64	; 0x40
 800029e:	6013      	str	r3, [r2, #0]
 80002a0:	e029      	b.n	80002f6 <EXTI_NVIC_DIS+0xba>
 80002a2:	4b17      	ldr	r3, [pc, #92]	; (8000300 <EXTI_NVIC_DIS+0xc4>)
 80002a4:	681b      	ldr	r3, [r3, #0]
 80002a6:	4a16      	ldr	r2, [pc, #88]	; (8000300 <EXTI_NVIC_DIS+0xc4>)
 80002a8:	f043 0380 	orr.w	r3, r3, #128	; 0x80
 80002ac:	6013      	str	r3, [r2, #0]
 80002ae:	e022      	b.n	80002f6 <EXTI_NVIC_DIS+0xba>
 80002b0:	4b13      	ldr	r3, [pc, #76]	; (8000300 <EXTI_NVIC_DIS+0xc4>)
 80002b2:	681b      	ldr	r3, [r3, #0]
 80002b4:	4a12      	ldr	r2, [pc, #72]	; (8000300 <EXTI_NVIC_DIS+0xc4>)
 80002b6:	f443 7380 	orr.w	r3, r3, #256	; 0x100
 80002ba:	6013      	str	r3, [r2, #0]
 80002bc:	e01b      	b.n	80002f6 <EXTI_NVIC_DIS+0xba>
 80002be:	4b10      	ldr	r3, [pc, #64]	; (8000300 <EXTI_NVIC_DIS+0xc4>)
 80002c0:	681b      	ldr	r3, [r3, #0]
 80002c2:	4a0f      	ldr	r2, [pc, #60]	; (8000300 <EXTI_NVIC_DIS+0xc4>)
 80002c4:	f443 7300 	orr.w	r3, r3, #512	; 0x200
 80002c8:	6013      	str	r3, [r2, #0]
 80002ca:	e014      	b.n	80002f6 <EXTI_NVIC_DIS+0xba>
 80002cc:	4b0c      	ldr	r3, [pc, #48]	; (8000300 <EXTI_NVIC_DIS+0xc4>)
 80002ce:	681b      	ldr	r3, [r3, #0]
 80002d0:	4a0b      	ldr	r2, [pc, #44]	; (8000300 <EXTI_NVIC_DIS+0xc4>)
 80002d2:	f443 6380 	orr.w	r3, r3, #1024	; 0x400
 80002d6:	6013      	str	r3, [r2, #0]
 80002d8:	e00d      	b.n	80002f6 <EXTI_NVIC_DIS+0xba>
 80002da:	4b09      	ldr	r3, [pc, #36]	; (8000300 <EXTI_NVIC_DIS+0xc4>)
 80002dc:	681b      	ldr	r3, [r3, #0]
 80002de:	4a08      	ldr	r2, [pc, #32]	; (8000300 <EXTI_NVIC_DIS+0xc4>)
 80002e0:	f443 0300 	orr.w	r3, r3, #8388608	; 0x800000
 80002e4:	6013      	str	r3, [r2, #0]
 80002e6:	e006      	b.n	80002f6 <EXTI_NVIC_DIS+0xba>
 80002e8:	4b06      	ldr	r3, [pc, #24]	; (8000304 <EXTI_NVIC_DIS+0xc8>)
 80002ea:	681b      	ldr	r3, [r3, #0]
 80002ec:	4a05      	ldr	r2, [pc, #20]	; (8000304 <EXTI_NVIC_DIS+0xc8>)
 80002ee:	f443 7380 	orr.w	r3, r3, #256	; 0x100
 80002f2:	6013      	str	r3, [r2, #0]
 80002f4:	bf00      	nop
 80002f6:	bf00      	nop
 80002f8:	370c      	adds	r7, #12
 80002fa:	46bd      	mov	sp, r7
 80002fc:	bc80      	pop	{r7}
 80002fe:	4770      	bx	lr
 8000300:	e000e180 	and	lr, r0, r0, lsl #3
 8000304:	e000e184 	and	lr, r0, r4, lsl #3

08000308 <EXTI_AFIO_EXTICR_shift>:
 8000308:	b480      	push	{r7}
 800030a:	b085      	sub	sp, #20
 800030c:	af00      	add	r7, sp, #0
 800030e:	4603      	mov	r3, r0
 8000310:	71fb      	strb	r3, [r7, #7]
 8000312:	79fb      	ldrb	r3, [r7, #7]
 8000314:	2b0f      	cmp	r3, #15
 8000316:	d82f      	bhi.n	8000378 <EXTI_AFIO_EXTICR_shift+0x70>
 8000318:	a201      	add	r2, pc, #4	; (adr r2, 8000320 <EXTI_AFIO_EXTICR_shift+0x18>)
 800031a:	f852 f023 	ldr.w	pc, [r2, r3, lsl #2]
 800031e:	bf00      	nop
 8000320:	08000361 	stmdaeq	r0, {r0, r5, r6, r8, r9}
 8000324:	08000367 	stmdaeq	r0, {r0, r1, r2, r5, r6, r8, r9}
 8000328:	0800036d 	stmdaeq	r0, {r0, r2, r3, r5, r6, r8, r9}
 800032c:	08000373 	stmdaeq	r0, {r0, r1, r4, r5, r6, r8, r9}
 8000330:	08000361 	stmdaeq	r0, {r0, r5, r6, r8, r9}
 8000334:	08000367 	stmdaeq	r0, {r0, r1, r2, r5, r6, r8, r9}
 8000338:	0800036d 	stmdaeq	r0, {r0, r2, r3, r5, r6, r8, r9}
 800033c:	08000373 	stmdaeq	r0, {r0, r1, r4, r5, r6, r8, r9}
 8000340:	08000361 	stmdaeq	r0, {r0, r5, r6, r8, r9}
 8000344:	08000367 	stmdaeq	r0, {r0, r1, r2, r5, r6, r8, r9}
 8000348:	0800036d 	stmdaeq	r0, {r0, r2, r3, r5, r6, r8, r9}
 800034c:	08000373 	stmdaeq	r0, {r0, r1, r4, r5, r6, r8, r9}
 8000350:	08000361 	stmdaeq	r0, {r0, r5, r6, r8, r9}
 8000354:	08000367 	stmdaeq	r0, {r0, r1, r2, r5, r6, r8, r9}
 8000358:	0800036d 	stmdaeq	r0, {r0, r2, r3, r5, r6, r8, r9}
 800035c:	08000373 	stmdaeq	r0, {r0, r1, r4, r5, r6, r8, r9}
 8000360:	2300      	movs	r3, #0
 8000362:	73fb      	strb	r3, [r7, #15]
 8000364:	e008      	b.n	8000378 <EXTI_AFIO_EXTICR_shift+0x70>
 8000366:	2304      	movs	r3, #4
 8000368:	73fb      	strb	r3, [r7, #15]
 800036a:	e005      	b.n	8000378 <EXTI_AFIO_EXTICR_shift+0x70>
 800036c:	2308      	movs	r3, #8
 800036e:	73fb      	strb	r3, [r7, #15]
 8000370:	e002      	b.n	8000378 <EXTI_AFIO_EXTICR_shift+0x70>
 8000372:	230c      	movs	r3, #12
 8000374:	73fb      	strb	r3, [r7, #15]
 8000376:	bf00      	nop
 8000378:	7bfb      	ldrb	r3, [r7, #15]
 800037a:	4618      	mov	r0, r3
 800037c:	3714      	adds	r7, #20
 800037e:	46bd      	mov	sp, r7
 8000380:	bc80      	pop	{r7}
 8000382:	4770      	bx	lr

08000384 <MCAL_EXTI_Init>:
 8000384:	b580      	push	{r7, lr}
 8000386:	b084      	sub	sp, #16
 8000388:	af00      	add	r7, sp, #0
 800038a:	6078      	str	r0, [r7, #4]
 800038c:	687b      	ldr	r3, [r7, #4]
 800038e:	3304      	adds	r3, #4
 8000390:	4618      	mov	r0, r3
 8000392:	f000 fa45 	bl	8000820 <MCAL_GPIO_Init>
 8000396:	687b      	ldr	r3, [r7, #4]
 8000398:	781b      	ldrb	r3, [r3, #0]
 800039a:	089b      	lsrs	r3, r3, #2
 800039c:	73fb      	strb	r3, [r7, #15]
 800039e:	687b      	ldr	r3, [r7, #4]
 80003a0:	781b      	ldrb	r3, [r3, #0]
 80003a2:	4618      	mov	r0, r3
 80003a4:	f7ff ffb0 	bl	8000308 <EXTI_AFIO_EXTICR_shift>
 80003a8:	4603      	mov	r3, r0
 80003aa:	73bb      	strb	r3, [r7, #14]
 80003ac:	4a61      	ldr	r2, [pc, #388]	; (8000534 <MCAL_EXTI_Init+0x1b0>)
 80003ae:	7bfb      	ldrb	r3, [r7, #15]
 80003b0:	3302      	adds	r3, #2
 80003b2:	f852 2023 	ldr.w	r2, [r2, r3, lsl #2]
 80003b6:	7bbb      	ldrb	r3, [r7, #14]
 80003b8:	210f      	movs	r1, #15
 80003ba:	fa01 f303 	lsl.w	r3, r1, r3
 80003be:	43db      	mvns	r3, r3
 80003c0:	4618      	mov	r0, r3
 80003c2:	495c      	ldr	r1, [pc, #368]	; (8000534 <MCAL_EXTI_Init+0x1b0>)
 80003c4:	7bfb      	ldrb	r3, [r7, #15]
 80003c6:	4002      	ands	r2, r0
 80003c8:	3302      	adds	r3, #2
 80003ca:	f841 2023 	str.w	r2, [r1, r3, lsl #2]
 80003ce:	4a59      	ldr	r2, [pc, #356]	; (8000534 <MCAL_EXTI_Init+0x1b0>)
 80003d0:	7bfb      	ldrb	r3, [r7, #15]
 80003d2:	3302      	adds	r3, #2
 80003d4:	f852 2023 	ldr.w	r2, [r2, r3, lsl #2]
 80003d8:	687b      	ldr	r3, [r7, #4]
 80003da:	685b      	ldr	r3, [r3, #4]
 80003dc:	4956      	ldr	r1, [pc, #344]	; (8000538 <MCAL_EXTI_Init+0x1b4>)
 80003de:	428b      	cmp	r3, r1
 80003e0:	d01d      	beq.n	800041e <MCAL_EXTI_Init+0x9a>
 80003e2:	687b      	ldr	r3, [r7, #4]
 80003e4:	685b      	ldr	r3, [r3, #4]
 80003e6:	4955      	ldr	r1, [pc, #340]	; (800053c <MCAL_EXTI_Init+0x1b8>)
 80003e8:	428b      	cmp	r3, r1
 80003ea:	d016      	beq.n	800041a <MCAL_EXTI_Init+0x96>
 80003ec:	687b      	ldr	r3, [r7, #4]
 80003ee:	685b      	ldr	r3, [r3, #4]
 80003f0:	4953      	ldr	r1, [pc, #332]	; (8000540 <MCAL_EXTI_Init+0x1bc>)
 80003f2:	428b      	cmp	r3, r1
 80003f4:	d00f      	beq.n	8000416 <MCAL_EXTI_Init+0x92>
 80003f6:	687b      	ldr	r3, [r7, #4]
 80003f8:	685b      	ldr	r3, [r3, #4]
 80003fa:	4952      	ldr	r1, [pc, #328]	; (8000544 <MCAL_EXTI_Init+0x1c0>)
 80003fc:	428b      	cmp	r3, r1
 80003fe:	d008      	beq.n	8000412 <MCAL_EXTI_Init+0x8e>
 8000400:	687b      	ldr	r3, [r7, #4]
 8000402:	685b      	ldr	r3, [r3, #4]
 8000404:	4950      	ldr	r1, [pc, #320]	; (8000548 <MCAL_EXTI_Init+0x1c4>)
 8000406:	428b      	cmp	r3, r1
 8000408:	d101      	bne.n	800040e <MCAL_EXTI_Init+0x8a>
 800040a:	2304      	movs	r3, #4
 800040c:	e008      	b.n	8000420 <MCAL_EXTI_Init+0x9c>
 800040e:	2300      	movs	r3, #0
 8000410:	e006      	b.n	8000420 <MCAL_EXTI_Init+0x9c>
 8000412:	2303      	movs	r3, #3
 8000414:	e004      	b.n	8000420 <MCAL_EXTI_Init+0x9c>
 8000416:	2302      	movs	r3, #2
 8000418:	e002      	b.n	8000420 <MCAL_EXTI_Init+0x9c>
 800041a:	2301      	movs	r3, #1
 800041c:	e000      	b.n	8000420 <MCAL_EXTI_Init+0x9c>
 800041e:	2300      	movs	r3, #0
 8000420:	7bb9      	ldrb	r1, [r7, #14]
 8000422:	408b      	lsls	r3, r1
 8000424:	4618      	mov	r0, r3
 8000426:	4943      	ldr	r1, [pc, #268]	; (8000534 <MCAL_EXTI_Init+0x1b0>)
 8000428:	7bfb      	ldrb	r3, [r7, #15]
 800042a:	4302      	orrs	r2, r0
 800042c:	3302      	adds	r3, #2
 800042e:	f841 2023 	str.w	r2, [r1, r3, lsl #2]
 8000432:	4b46      	ldr	r3, [pc, #280]	; (800054c <MCAL_EXTI_Init+0x1c8>)
 8000434:	689b      	ldr	r3, [r3, #8]
 8000436:	687a      	ldr	r2, [r7, #4]
 8000438:	7812      	ldrb	r2, [r2, #0]
 800043a:	4611      	mov	r1, r2
 800043c:	2201      	movs	r2, #1
 800043e:	408a      	lsls	r2, r1
 8000440:	43d2      	mvns	r2, r2
 8000442:	4611      	mov	r1, r2
 8000444:	4a41      	ldr	r2, [pc, #260]	; (800054c <MCAL_EXTI_Init+0x1c8>)
 8000446:	400b      	ands	r3, r1
 8000448:	6093      	str	r3, [r2, #8]
 800044a:	4b40      	ldr	r3, [pc, #256]	; (800054c <MCAL_EXTI_Init+0x1c8>)
 800044c:	68db      	ldr	r3, [r3, #12]
 800044e:	687a      	ldr	r2, [r7, #4]
 8000450:	7812      	ldrb	r2, [r2, #0]
 8000452:	4611      	mov	r1, r2
 8000454:	2201      	movs	r2, #1
 8000456:	408a      	lsls	r2, r1
 8000458:	43d2      	mvns	r2, r2
 800045a:	4611      	mov	r1, r2
 800045c:	4a3b      	ldr	r2, [pc, #236]	; (800054c <MCAL_EXTI_Init+0x1c8>)
 800045e:	400b      	ands	r3, r1
 8000460:	60d3      	str	r3, [r2, #12]
 8000462:	687b      	ldr	r3, [r7, #4]
 8000464:	7b1b      	ldrb	r3, [r3, #12]
 8000466:	2b01      	cmp	r3, #1
 8000468:	d00f      	beq.n	800048a <MCAL_EXTI_Init+0x106>
 800046a:	2b02      	cmp	r3, #2
 800046c:	d019      	beq.n	80004a2 <MCAL_EXTI_Init+0x11e>
 800046e:	2b00      	cmp	r3, #0
 8000470:	d12e      	bne.n	80004d0 <MCAL_EXTI_Init+0x14c>
 8000472:	4b36      	ldr	r3, [pc, #216]	; (800054c <MCAL_EXTI_Init+0x1c8>)
 8000474:	689b      	ldr	r3, [r3, #8]
 8000476:	687a      	ldr	r2, [r7, #4]
 8000478:	7812      	ldrb	r2, [r2, #0]
 800047a:	4611      	mov	r1, r2
 800047c:	2201      	movs	r2, #1
 800047e:	408a      	lsls	r2, r1
 8000480:	4611      	mov	r1, r2
 8000482:	4a32      	ldr	r2, [pc, #200]	; (800054c <MCAL_EXTI_Init+0x1c8>)
 8000484:	430b      	orrs	r3, r1
 8000486:	6093      	str	r3, [r2, #8]
 8000488:	e022      	b.n	80004d0 <MCAL_EXTI_Init+0x14c>
 800048a:	4b30      	ldr	r3, [pc, #192]	; (800054c <MCAL_EXTI_Init+0x1c8>)
 800048c:	68db      	ldr	r3, [r3, #12]
 800048e:	687a      	ldr	r2, [r7, #4]
 8000490:	7812      	ldrb	r2, [r2, #0]
 8000492:	4611      	mov	r1, r2
 8000494:	2201      	movs	r2, #1
 8000496:	408a      	lsls	r2, r1
 8000498:	4611      	mov	r1, r2
 800049a:	4a2c      	ldr	r2, [pc, #176]	; (800054c <MCAL_EXTI_Init+0x1c8>)
 800049c:	430b      	orrs	r3, r1
 800049e:	60d3      	str	r3, [r2, #12]
 80004a0:	e016      	b.n	80004d0 <MCAL_EXTI_Init+0x14c>
 80004a2:	4b2a      	ldr	r3, [pc, #168]	; (800054c <MCAL_EXTI_Init+0x1c8>)
 80004a4:	689b      	ldr	r3, [r3, #8]
 80004a6:	687a      	ldr	r2, [r7, #4]
 80004a8:	7812      	ldrb	r2, [r2, #0]
 80004aa:	4611      	mov	r1, r2
 80004ac:	2201      	movs	r2, #1
 80004ae:	408a      	lsls	r2, r1
 80004b0:	4611      	mov	r1, r2
 80004b2:	4a26      	ldr	r2, [pc, #152]	; (800054c <MCAL_EXTI_Init+0x1c8>)
 80004b4:	430b      	orrs	r3, r1
 80004b6:	6093      	str	r3, [r2, #8]
 80004b8:	4b24      	ldr	r3, [pc, #144]	; (800054c <MCAL_EXTI_Init+0x1c8>)
 80004ba:	68db      	ldr	r3, [r3, #12]
 80004bc:	687a      	ldr	r2, [r7, #4]
 80004be:	7812      	ldrb	r2, [r2, #0]
 80004c0:	4611      	mov	r1, r2
 80004c2:	2201      	movs	r2, #1
 80004c4:	408a      	lsls	r2, r1
 80004c6:	4611      	mov	r1, r2
 80004c8:	4a20      	ldr	r2, [pc, #128]	; (800054c <MCAL_EXTI_Init+0x1c8>)
 80004ca:	430b      	orrs	r3, r1
 80004cc:	60d3      	str	r3, [r2, #12]
 80004ce:	bf00      	nop
 80004d0:	687b      	ldr	r3, [r7, #4]
 80004d2:	781b      	ldrb	r3, [r3, #0]
 80004d4:	4619      	mov	r1, r3
 80004d6:	687b      	ldr	r3, [r7, #4]
 80004d8:	691b      	ldr	r3, [r3, #16]
 80004da:	4a1d      	ldr	r2, [pc, #116]	; (8000550 <MCAL_EXTI_Init+0x1cc>)
 80004dc:	f842 3021 	str.w	r3, [r2, r1, lsl #2]
 80004e0:	687b      	ldr	r3, [r7, #4]
 80004e2:	7b5b      	ldrb	r3, [r3, #13]
 80004e4:	2b01      	cmp	r3, #1
 80004e6:	d110      	bne.n	800050a <MCAL_EXTI_Init+0x186>
 80004e8:	4b18      	ldr	r3, [pc, #96]	; (800054c <MCAL_EXTI_Init+0x1c8>)
 80004ea:	681b      	ldr	r3, [r3, #0]
 80004ec:	687a      	ldr	r2, [r7, #4]
 80004ee:	7812      	ldrb	r2, [r2, #0]
 80004f0:	4611      	mov	r1, r2
 80004f2:	2201      	movs	r2, #1
 80004f4:	408a      	lsls	r2, r1
 80004f6:	4611      	mov	r1, r2
 80004f8:	4a14      	ldr	r2, [pc, #80]	; (800054c <MCAL_EXTI_Init+0x1c8>)
 80004fa:	430b      	orrs	r3, r1
 80004fc:	6013      	str	r3, [r2, #0]
 80004fe:	687b      	ldr	r3, [r7, #4]
 8000500:	781b      	ldrb	r3, [r3, #0]
 8000502:	4618      	mov	r0, r3
 8000504:	f7ff fe34 	bl	8000170 <EXTI_NVIC_EN>
 8000508:	e010      	b.n	800052c <MCAL_EXTI_Init+0x1a8>
 800050a:	4b10      	ldr	r3, [pc, #64]	; (800054c <MCAL_EXTI_Init+0x1c8>)
 800050c:	681b      	ldr	r3, [r3, #0]
 800050e:	687a      	ldr	r2, [r7, #4]
 8000510:	7812      	ldrb	r2, [r2, #0]
 8000512:	4611      	mov	r1, r2
 8000514:	2201      	movs	r2, #1
 8000516:	408a      	lsls	r2, r1
 8000518:	43d2      	mvns	r2, r2
 800051a:	4611      	mov	r1, r2
 800051c:	4a0b      	ldr	r2, [pc, #44]	; (800054c <MCAL_EXTI_Init+0x1c8>)
 800051e:	400b      	ands	r3, r1
 8000520:	6013      	str	r3, [r2, #0]
 8000522:	687b      	ldr	r3, [r7, #4]
 8000524:	781b      	ldrb	r3, [r3, #0]
 8000526:	4618      	mov	r0, r3
 8000528:	f7ff fe88 	bl	800023c <EXTI_NVIC_DIS>
 800052c:	bf00      	nop
 800052e:	3710      	adds	r7, #16
 8000530:	46bd      	mov	sp, r7
 8000532:	bd80      	pop	{r7, pc}
 8000534:	40010000 	andmi	r0, r1, r0
 8000538:	40010800 	andmi	r0, r1, r0, lsl #16
 800053c:	40010c00 	andmi	r0, r1, r0, lsl #24
 8000540:	40011000 	andmi	r1, r1, r0
 8000544:	40011400 	andmi	r1, r1, r0, lsl #8
 8000548:	40011800 	andmi	r1, r1, r0, lsl #16
 800054c:	40010400 	andmi	r0, r1, r0, lsl #8
 8000550:	2000001c 	andcs	r0, r0, ip, lsl r0

08000554 <EXTI0_IRQHandler>:
 8000554:	b580      	push	{r7, lr}
 8000556:	af00      	add	r7, sp, #0
 8000558:	4b05      	ldr	r3, [pc, #20]	; (8000570 <EXTI0_IRQHandler+0x1c>)
 800055a:	695b      	ldr	r3, [r3, #20]
 800055c:	4a04      	ldr	r2, [pc, #16]	; (8000570 <EXTI0_IRQHandler+0x1c>)
 800055e:	f043 0301 	orr.w	r3, r3, #1
 8000562:	6153      	str	r3, [r2, #20]
 8000564:	4b03      	ldr	r3, [pc, #12]	; (8000574 <EXTI0_IRQHandler+0x20>)
 8000566:	681b      	ldr	r3, [r3, #0]
 8000568:	4798      	blx	r3
 800056a:	bf00      	nop
 800056c:	bd80      	pop	{r7, pc}
 800056e:	bf00      	nop
 8000570:	40010400 	andmi	r0, r1, r0, lsl #8
 8000574:	2000001c 	andcs	r0, r0, ip, lsl r0

08000578 <EXTI1_IRQHandler>:
 8000578:	b580      	push	{r7, lr}
 800057a:	af00      	add	r7, sp, #0
 800057c:	4b05      	ldr	r3, [pc, #20]	; (8000594 <EXTI1_IRQHandler+0x1c>)
 800057e:	695b      	ldr	r3, [r3, #20]
 8000580:	4a04      	ldr	r2, [pc, #16]	; (8000594 <EXTI1_IRQHandler+0x1c>)
 8000582:	f043 0302 	orr.w	r3, r3, #2
 8000586:	6153      	str	r3, [r2, #20]
 8000588:	4b03      	ldr	r3, [pc, #12]	; (8000598 <EXTI1_IRQHandler+0x20>)
 800058a:	685b      	ldr	r3, [r3, #4]
 800058c:	4798      	blx	r3
 800058e:	bf00      	nop
 8000590:	bd80      	pop	{r7, pc}
 8000592:	bf00      	nop
 8000594:	40010400 	andmi	r0, r1, r0, lsl #8
 8000598:	2000001c 	andcs	r0, r0, ip, lsl r0

0800059c <EXTI2_IRQHandler>:
 800059c:	b580      	push	{r7, lr}
 800059e:	af00      	add	r7, sp, #0
 80005a0:	4b05      	ldr	r3, [pc, #20]	; (80005b8 <EXTI2_IRQHandler+0x1c>)
 80005a2:	695b      	ldr	r3, [r3, #20]
 80005a4:	4a04      	ldr	r2, [pc, #16]	; (80005b8 <EXTI2_IRQHandler+0x1c>)
 80005a6:	f043 0304 	orr.w	r3, r3, #4
 80005aa:	6153      	str	r3, [r2, #20]
 80005ac:	4b03      	ldr	r3, [pc, #12]	; (80005bc <EXTI2_IRQHandler+0x20>)
 80005ae:	689b      	ldr	r3, [r3, #8]
 80005b0:	4798      	blx	r3
 80005b2:	bf00      	nop
 80005b4:	bd80      	pop	{r7, pc}
 80005b6:	bf00      	nop
 80005b8:	40010400 	andmi	r0, r1, r0, lsl #8
 80005bc:	2000001c 	andcs	r0, r0, ip, lsl r0

080005c0 <EXTI3_IRQHandler>:
 80005c0:	b580      	push	{r7, lr}
 80005c2:	af00      	add	r7, sp, #0
 80005c4:	4b05      	ldr	r3, [pc, #20]	; (80005dc <EXTI3_IRQHandler+0x1c>)
 80005c6:	695b      	ldr	r3, [r3, #20]
 80005c8:	4a04      	ldr	r2, [pc, #16]	; (80005dc <EXTI3_IRQHandler+0x1c>)
 80005ca:	f043 0308 	orr.w	r3, r3, #8
 80005ce:	6153      	str	r3, [r2, #20]
 80005d0:	4b03      	ldr	r3, [pc, #12]	; (80005e0 <EXTI3_IRQHandler+0x20>)
 80005d2:	68db      	ldr	r3, [r3, #12]
 80005d4:	4798      	blx	r3
 80005d6:	bf00      	nop
 80005d8:	bd80      	pop	{r7, pc}
 80005da:	bf00      	nop
 80005dc:	40010400 	andmi	r0, r1, r0, lsl #8
 80005e0:	2000001c 	andcs	r0, r0, ip, lsl r0

080005e4 <EXTI4_IRQHandler>:
 80005e4:	b580      	push	{r7, lr}
 80005e6:	af00      	add	r7, sp, #0
 80005e8:	4b05      	ldr	r3, [pc, #20]	; (8000600 <EXTI4_IRQHandler+0x1c>)
 80005ea:	695b      	ldr	r3, [r3, #20]
 80005ec:	4a04      	ldr	r2, [pc, #16]	; (8000600 <EXTI4_IRQHandler+0x1c>)
 80005ee:	f043 0310 	orr.w	r3, r3, #16
 80005f2:	6153      	str	r3, [r2, #20]
 80005f4:	4b03      	ldr	r3, [pc, #12]	; (8000604 <EXTI4_IRQHandler+0x20>)
 80005f6:	691b      	ldr	r3, [r3, #16]
 80005f8:	4798      	blx	r3
 80005fa:	bf00      	nop
 80005fc:	bd80      	pop	{r7, pc}
 80005fe:	bf00      	nop
 8000600:	40010400 	andmi	r0, r1, r0, lsl #8
 8000604:	2000001c 	andcs	r0, r0, ip, lsl r0

08000608 <EXTI9_5_IRQHandler>:
 8000608:	b580      	push	{r7, lr}
 800060a:	af00      	add	r7, sp, #0
 800060c:	4b26      	ldr	r3, [pc, #152]	; (80006a8 <EXTI9_5_IRQHandler+0xa0>)
 800060e:	695b      	ldr	r3, [r3, #20]
 8000610:	f003 0320 	and.w	r3, r3, #32
 8000614:	2b00      	cmp	r3, #0
 8000616:	d008      	beq.n	800062a <EXTI9_5_IRQHandler+0x22>
 8000618:	4b23      	ldr	r3, [pc, #140]	; (80006a8 <EXTI9_5_IRQHandler+0xa0>)
 800061a:	695b      	ldr	r3, [r3, #20]
 800061c:	4a22      	ldr	r2, [pc, #136]	; (80006a8 <EXTI9_5_IRQHandler+0xa0>)
 800061e:	f043 0320 	orr.w	r3, r3, #32
 8000622:	6153      	str	r3, [r2, #20]
 8000624:	4b21      	ldr	r3, [pc, #132]	; (80006ac <EXTI9_5_IRQHandler+0xa4>)
 8000626:	695b      	ldr	r3, [r3, #20]
 8000628:	4798      	blx	r3
 800062a:	4b1f      	ldr	r3, [pc, #124]	; (80006a8 <EXTI9_5_IRQHandler+0xa0>)
 800062c:	695b      	ldr	r3, [r3, #20]
 800062e:	f003 0340 	and.w	r3, r3, #64	; 0x40
 8000632:	2b00      	cmp	r3, #0
 8000634:	d008      	beq.n	8000648 <EXTI9_5_IRQHandler+0x40>
 8000636:	4b1c      	ldr	r3, [pc, #112]	; (80006a8 <EXTI9_5_IRQHandler+0xa0>)
 8000638:	695b      	ldr	r3, [r3, #20]
 800063a:	4a1b      	ldr	r2, [pc, #108]	; (80006a8 <EXTI9_5_IRQHandler+0xa0>)
 800063c:	f043 0340 	orr.w	r3, r3, #64	; 0x40
 8000640:	6153      	str	r3, [r2, #20]
 8000642:	4b1a      	ldr	r3, [pc, #104]	; (80006ac <EXTI9_5_IRQHandler+0xa4>)
 8000644:	699b      	ldr	r3, [r3, #24]
 8000646:	4798      	blx	r3
 8000648:	4b17      	ldr	r3, [pc, #92]	; (80006a8 <EXTI9_5_IRQHandler+0xa0>)
 800064a:	695b      	ldr	r3, [r3, #20]
 800064c:	f003 0380 	and.w	r3, r3, #128	; 0x80
 8000650:	2b00      	cmp	r3, #0
 8000652:	d008      	beq.n	8000666 <EXTI9_5_IRQHandler+0x5e>
 8000654:	4b14      	ldr	r3, [pc, #80]	; (80006a8 <EXTI9_5_IRQHandler+0xa0>)
 8000656:	695b      	ldr	r3, [r3, #20]
 8000658:	4a13      	ldr	r2, [pc, #76]	; (80006a8 <EXTI9_5_IRQHandler+0xa0>)
 800065a:	f043 0380 	orr.w	r3, r3, #128	; 0x80
 800065e:	6153      	str	r3, [r2, #20]
 8000660:	4b12      	ldr	r3, [pc, #72]	; (80006ac <EXTI9_5_IRQHandler+0xa4>)
 8000662:	69db      	ldr	r3, [r3, #28]
 8000664:	4798      	blx	r3
 8000666:	4b10      	ldr	r3, [pc, #64]	; (80006a8 <EXTI9_5_IRQHandler+0xa0>)
 8000668:	695b      	ldr	r3, [r3, #20]
 800066a:	f403 7380 	and.w	r3, r3, #256	; 0x100
 800066e:	2b00      	cmp	r3, #0
 8000670:	d008      	beq.n	8000684 <EXTI9_5_IRQHandler+0x7c>
 8000672:	4b0d      	ldr	r3, [pc, #52]	; (80006a8 <EXTI9_5_IRQHandler+0xa0>)
 8000674:	695b      	ldr	r3, [r3, #20]
 8000676:	4a0c      	ldr	r2, [pc, #48]	; (80006a8 <EXTI9_5_IRQHandler+0xa0>)
 8000678:	f443 7380 	orr.w	r3, r3, #256	; 0x100
 800067c:	6153      	str	r3, [r2, #20]
 800067e:	4b0b      	ldr	r3, [pc, #44]	; (80006ac <EXTI9_5_IRQHandler+0xa4>)
 8000680:	6a1b      	ldr	r3, [r3, #32]
 8000682:	4798      	blx	r3
 8000684:	4b08      	ldr	r3, [pc, #32]	; (80006a8 <EXTI9_5_IRQHandler+0xa0>)
 8000686:	695b      	ldr	r3, [r3, #20]
 8000688:	f403 7300 	and.w	r3, r3, #512	; 0x200
 800068c:	2b00      	cmp	r3, #0
 800068e:	d008      	beq.n	80006a2 <EXTI9_5_IRQHandler+0x9a>
 8000690:	4b05      	ldr	r3, [pc, #20]	; (80006a8 <EXTI9_5_IRQHandler+0xa0>)
 8000692:	695b      	ldr	r3, [r3, #20]
 8000694:	4a04      	ldr	r2, [pc, #16]	; (80006a8 <EXTI9_5_IRQHandler+0xa0>)
 8000696:	f443 7300 	orr.w	r3, r3, #512	; 0x200
 800069a:	6153      	str	r3, [r2, #20]
 800069c:	4b03      	ldr	r3, [pc, #12]	; (80006ac <EXTI9_5_IRQHandler+0xa4>)
 800069e:	6a5b      	ldr	r3, [r3, #36]	; 0x24
 80006a0:	4798      	blx	r3
 80006a2:	bf00      	nop
 80006a4:	bd80      	pop	{r7, pc}
 80006a6:	bf00      	nop
 80006a8:	40010400 	andmi	r0, r1, r0, lsl #8
 80006ac:	2000001c 	andcs	r0, r0, ip, lsl r0

080006b0 <EXTI15_10_IRQHandler>:
 80006b0:	b580      	push	{r7, lr}
 80006b2:	af00      	add	r7, sp, #0
 80006b4:	4b26      	ldr	r3, [pc, #152]	; (8000750 <EXTI15_10_IRQHandler+0xa0>)
 80006b6:	695b      	ldr	r3, [r3, #20]
 80006b8:	f403 6380 	and.w	r3, r3, #1024	; 0x400
 80006bc:	2b00      	cmp	r3, #0
 80006be:	d008      	beq.n	80006d2 <EXTI15_10_IRQHandler+0x22>
 80006c0:	4b23      	ldr	r3, [pc, #140]	; (8000750 <EXTI15_10_IRQHandler+0xa0>)
 80006c2:	695b      	ldr	r3, [r3, #20]
 80006c4:	4a22      	ldr	r2, [pc, #136]	; (8000750 <EXTI15_10_IRQHandler+0xa0>)
 80006c6:	f443 6380 	orr.w	r3, r3, #1024	; 0x400
 80006ca:	6153      	str	r3, [r2, #20]
 80006cc:	4b21      	ldr	r3, [pc, #132]	; (8000754 <EXTI15_10_IRQHandler+0xa4>)
 80006ce:	6a9b      	ldr	r3, [r3, #40]	; 0x28
 80006d0:	4798      	blx	r3
 80006d2:	4b1f      	ldr	r3, [pc, #124]	; (8000750 <EXTI15_10_IRQHandler+0xa0>)
 80006d4:	695b      	ldr	r3, [r3, #20]
 80006d6:	f403 6300 	and.w	r3, r3, #2048	; 0x800
 80006da:	2b00      	cmp	r3, #0
 80006dc:	d008      	beq.n	80006f0 <EXTI15_10_IRQHandler+0x40>
 80006de:	4b1c      	ldr	r3, [pc, #112]	; (8000750 <EXTI15_10_IRQHandler+0xa0>)
 80006e0:	695b      	ldr	r3, [r3, #20]
 80006e2:	4a1b      	ldr	r2, [pc, #108]	; (8000750 <EXTI15_10_IRQHandler+0xa0>)
 80006e4:	f443 6300 	orr.w	r3, r3, #2048	; 0x800
 80006e8:	6153      	str	r3, [r2, #20]
 80006ea:	4b1a      	ldr	r3, [pc, #104]	; (8000754 <EXTI15_10_IRQHandler+0xa4>)
 80006ec:	6adb      	ldr	r3, [r3, #44]	; 0x2c
 80006ee:	4798      	blx	r3
 80006f0:	4b17      	ldr	r3, [pc, #92]	; (8000750 <EXTI15_10_IRQHandler+0xa0>)
 80006f2:	695b      	ldr	r3, [r3, #20]
 80006f4:	f403 5380 	and.w	r3, r3, #4096	; 0x1000
 80006f8:	2b00      	cmp	r3, #0
 80006fa:	d008      	beq.n	800070e <EXTI15_10_IRQHandler+0x5e>
 80006fc:	4b14      	ldr	r3, [pc, #80]	; (8000750 <EXTI15_10_IRQHandler+0xa0>)
 80006fe:	695b      	ldr	r3, [r3, #20]
 8000700:	4a13      	ldr	r2, [pc, #76]	; (8000750 <EXTI15_10_IRQHandler+0xa0>)
 8000702:	f443 5380 	orr.w	r3, r3, #4096	; 0x1000
 8000706:	6153      	str	r3, [r2, #20]
 8000708:	4b12      	ldr	r3, [pc, #72]	; (8000754 <EXTI15_10_IRQHandler+0xa4>)
 800070a:	6b1b      	ldr	r3, [r3, #48]	; 0x30
 800070c:	4798      	blx	r3
 800070e:	4b10      	ldr	r3, [pc, #64]	; (8000750 <EXTI15_10_IRQHandler+0xa0>)
 8000710:	695b      	ldr	r3, [r3, #20]
 8000712:	f403 5300 	and.w	r3, r3, #8192	; 0x2000
 8000716:	2b00      	cmp	r3, #0
 8000718:	d008      	beq.n	800072c <EXTI15_10_IRQHandler+0x7c>
 800071a:	4b0d      	ldr	r3, [pc, #52]	; (8000750 <EXTI15_10_IRQHandler+0xa0>)
 800071c:	695b      	ldr	r3, [r3, #20]
 800071e:	4a0c      	ldr	r2, [pc, #48]	; (8000750 <EXTI15_10_IRQHandler+0xa0>)
 8000720:	f443 5300 	orr.w	r3, r3, #8192	; 0x2000
 8000724:	6153      	str	r3, [r2, #20]
 8000726:	4b0b      	ldr	r3, [pc, #44]	; (8000754 <EXTI15_10_IRQHandler+0xa4>)
 8000728:	6b5b      	ldr	r3, [r3, #52]	; 0x34
 800072a:	4798      	blx	r3
 800072c:	4b08      	ldr	r3, [pc, #32]	; (8000750 <EXTI15_10_IRQHandler+0xa0>)
 800072e:	695b      	ldr	r3, [r3, #20]
 8000730:	f403 4380 	and.w	r3, r3, #16384	; 0x4000
 8000734:	2b00      	cmp	r3, #0
 8000736:	d008      	beq.n	800074a <EXTI15_10_IRQHandler+0x9a>
 8000738:	4b05      	ldr	r3, [pc, #20]	; (8000750 <EXTI15_10_IRQHandler+0xa0>)
 800073a:	695b      	ldr	r3, [r3, #20]
 800073c:	4a04      	ldr	r2, [pc, #16]	; (8000750 <EXTI15_10_IRQHandler+0xa0>)
 800073e:	f443 4380 	orr.w	r3, r3, #16384	; 0x4000
 8000742:	6153      	str	r3, [r2, #20]
 8000744:	4b03      	ldr	r3, [pc, #12]	; (8000754 <EXTI15_10_IRQHandler+0xa4>)
 8000746:	6b9b      	ldr	r3, [r3, #56]	; 0x38
 8000748:	4798      	blx	r3
 800074a:	bf00      	nop
 800074c:	bd80      	pop	{r7, pc}
 800074e:	bf00      	nop
 8000750:	40010400 	andmi	r0, r1, r0, lsl #8
 8000754:	2000001c 	andcs	r0, r0, ip, lsl r0

08000758 <Get_CRx_Position>:
 8000758:	b480      	push	{r7}
 800075a:	b083      	sub	sp, #12
 800075c:	af00      	add	r7, sp, #0
 800075e:	4603      	mov	r3, r0
 8000760:	80fb      	strh	r3, [r7, #6]
 8000762:	88fb      	ldrh	r3, [r7, #6]
 8000764:	2b80      	cmp	r3, #128	; 0x80
 8000766:	d042      	beq.n	80007ee <Get_CRx_Position+0x96>
 8000768:	2b80      	cmp	r3, #128	; 0x80
 800076a:	dc11      	bgt.n	8000790 <Get_CRx_Position+0x38>
 800076c:	2b08      	cmp	r3, #8
 800076e:	d036      	beq.n	80007de <Get_CRx_Position+0x86>
 8000770:	2b08      	cmp	r3, #8
 8000772:	dc06      	bgt.n	8000782 <Get_CRx_Position+0x2a>
 8000774:	2b02      	cmp	r3, #2
 8000776:	d02e      	beq.n	80007d6 <Get_CRx_Position+0x7e>
 8000778:	2b04      	cmp	r3, #4
 800077a:	d02e      	beq.n	80007da <Get_CRx_Position+0x82>
 800077c:	2b01      	cmp	r3, #1
 800077e:	d028      	beq.n	80007d2 <Get_CRx_Position+0x7a>
 8000780:	e047      	b.n	8000812 <Get_CRx_Position+0xba>
 8000782:	2b20      	cmp	r3, #32
 8000784:	d02f      	beq.n	80007e6 <Get_CRx_Position+0x8e>
 8000786:	2b40      	cmp	r3, #64	; 0x40
 8000788:	d02f      	beq.n	80007ea <Get_CRx_Position+0x92>
 800078a:	2b10      	cmp	r3, #16
 800078c:	d029      	beq.n	80007e2 <Get_CRx_Position+0x8a>
 800078e:	e040      	b.n	8000812 <Get_CRx_Position+0xba>
 8000790:	f5b3 6f00 	cmp.w	r3, #2048	; 0x800
 8000794:	d033      	beq.n	80007fe <Get_CRx_Position+0xa6>
 8000796:	f5b3 6f00 	cmp.w	r3, #2048	; 0x800
 800079a:	dc09      	bgt.n	80007b0 <Get_CRx_Position+0x58>
 800079c:	f5b3 7f00 	cmp.w	r3, #512	; 0x200
 80007a0:	d029      	beq.n	80007f6 <Get_CRx_Position+0x9e>
 80007a2:	f5b3 6f80 	cmp.w	r3, #1024	; 0x400
 80007a6:	d028      	beq.n	80007fa <Get_CRx_Position+0xa2>
 80007a8:	f5b3 7f80 	cmp.w	r3, #256	; 0x100
 80007ac:	d021      	beq.n	80007f2 <Get_CRx_Position+0x9a>
 80007ae:	e030      	b.n	8000812 <Get_CRx_Position+0xba>
 80007b0:	f5b3 5f00 	cmp.w	r3, #8192	; 0x2000
 80007b4:	d027      	beq.n	8000806 <Get_CRx_Position+0xae>
 80007b6:	f5b3 5f00 	cmp.w	r3, #8192	; 0x2000
 80007ba:	dc03      	bgt.n	80007c4 <Get_CRx_Position+0x6c>
 80007bc:	f5b3 5f80 	cmp.w	r3, #4096	; 0x1000
 80007c0:	d01f      	beq.n	8000802 <Get_CRx_Position+0xaa>
 80007c2:	e026      	b.n	8000812 <Get_CRx_Position+0xba>
 80007c4:	f5b3 4f80 	cmp.w	r3, #16384	; 0x4000
 80007c8:	d01f      	beq.n	800080a <Get_CRx_Position+0xb2>
 80007ca:	f5b3 4f00 	cmp.w	r3, #32768	; 0x8000
 80007ce:	d01e      	beq.n	800080e <Get_CRx_Position+0xb6>
 80007d0:	e01f      	b.n	8000812 <Get_CRx_Position+0xba>
 80007d2:	2300      	movs	r3, #0
 80007d4:	e01e      	b.n	8000814 <Get_CRx_Position+0xbc>
 80007d6:	2304      	movs	r3, #4
 80007d8:	e01c      	b.n	8000814 <Get_CRx_Position+0xbc>
 80007da:	2308      	movs	r3, #8
 80007dc:	e01a      	b.n	8000814 <Get_CRx_Position+0xbc>
 80007de:	230c      	movs	r3, #12
 80007e0:	e018      	b.n	8000814 <Get_CRx_Position+0xbc>
 80007e2:	2310      	movs	r3, #16
 80007e4:	e016      	b.n	8000814 <Get_CRx_Position+0xbc>
 80007e6:	2314      	movs	r3, #20
 80007e8:	e014      	b.n	8000814 <Get_CRx_Position+0xbc>
 80007ea:	2318      	movs	r3, #24
 80007ec:	e012      	b.n	8000814 <Get_CRx_Position+0xbc>
 80007ee:	231c      	movs	r3, #28
 80007f0:	e010      	b.n	8000814 <Get_CRx_Position+0xbc>
 80007f2:	2300      	movs	r3, #0
 80007f4:	e00e      	b.n	8000814 <Get_CRx_Position+0xbc>
 80007f6:	2304      	movs	r3, #4
 80007f8:	e00c      	b.n	8000814 <Get_CRx_Position+0xbc>
 80007fa:	2308      	movs	r3, #8
 80007fc:	e00a      	b.n	8000814 <Get_CRx_Position+0xbc>
 80007fe:	230c      	movs	r3, #12
 8000800:	e008      	b.n	8000814 <Get_CRx_Position+0xbc>
 8000802:	2310      	movs	r3, #16
 8000804:	e006      	b.n	8000814 <Get_CRx_Position+0xbc>
 8000806:	2314      	movs	r3, #20
 8000808:	e004      	b.n	8000814 <Get_CRx_Position+0xbc>
 800080a:	2318      	movs	r3, #24
 800080c:	e002      	b.n	8000814 <Get_CRx_Position+0xbc>
 800080e:	231c      	movs	r3, #28
 8000810:	e000      	b.n	8000814 <Get_CRx_Position+0xbc>
 8000812:	2300      	movs	r3, #0
 8000814:	4618      	mov	r0, r3
 8000816:	370c      	adds	r7, #12
 8000818:	46bd      	mov	sp, r7
 800081a:	bc80      	pop	{r7}
 800081c:	4770      	bx	lr
	...

08000820 <MCAL_GPIO_Init>:
 8000820:	b590      	push	{r4, r7, lr}
 8000822:	b085      	sub	sp, #20
 8000824:	af00      	add	r7, sp, #0
 8000826:	6078      	str	r0, [r7, #4]
 8000828:	687b      	ldr	r3, [r7, #4]
 800082a:	681b      	ldr	r3, [r3, #0]
 800082c:	4a7c      	ldr	r2, [pc, #496]	; (8000a20 <MCAL_GPIO_Init+0x200>)
 800082e:	4293      	cmp	r3, r2
 8000830:	d10d      	bne.n	800084e <MCAL_GPIO_Init+0x2e>
 8000832:	4b7c      	ldr	r3, [pc, #496]	; (8000a24 <MCAL_GPIO_Init+0x204>)
 8000834:	781b      	ldrb	r3, [r3, #0]
 8000836:	2b01      	cmp	r3, #1
 8000838:	d009      	beq.n	800084e <MCAL_GPIO_Init+0x2e>
 800083a:	4b7b      	ldr	r3, [pc, #492]	; (8000a28 <MCAL_GPIO_Init+0x208>)
 800083c:	699b      	ldr	r3, [r3, #24]
 800083e:	4a7a      	ldr	r2, [pc, #488]	; (8000a28 <MCAL_GPIO_Init+0x208>)
 8000840:	f043 0304 	orr.w	r3, r3, #4
 8000844:	6193      	str	r3, [r2, #24]
 8000846:	4b77      	ldr	r3, [pc, #476]	; (8000a24 <MCAL_GPIO_Init+0x204>)
 8000848:	2201      	movs	r2, #1
 800084a:	701a      	strb	r2, [r3, #0]
 800084c:	e04a      	b.n	80008e4 <MCAL_GPIO_Init+0xc4>
 800084e:	687b      	ldr	r3, [r7, #4]
 8000850:	681b      	ldr	r3, [r3, #0]
 8000852:	4a76      	ldr	r2, [pc, #472]	; (8000a2c <MCAL_GPIO_Init+0x20c>)
 8000854:	4293      	cmp	r3, r2
 8000856:	d10d      	bne.n	8000874 <MCAL_GPIO_Init+0x54>
 8000858:	4b72      	ldr	r3, [pc, #456]	; (8000a24 <MCAL_GPIO_Init+0x204>)
 800085a:	785b      	ldrb	r3, [r3, #1]
 800085c:	2b01      	cmp	r3, #1
 800085e:	d009      	beq.n	8000874 <MCAL_GPIO_Init+0x54>
 8000860:	4b71      	ldr	r3, [pc, #452]	; (8000a28 <MCAL_GPIO_Init+0x208>)
 8000862:	699b      	ldr	r3, [r3, #24]
 8000864:	4a70      	ldr	r2, [pc, #448]	; (8000a28 <MCAL_GPIO_Init+0x208>)
 8000866:	f043 0308 	orr.w	r3, r3, #8
 800086a:	6193      	str	r3, [r2, #24]
 800086c:	4b6d      	ldr	r3, [pc, #436]	; (8000a24 <MCAL_GPIO_Init+0x204>)
 800086e:	2201      	movs	r2, #1
 8000870:	705a      	strb	r2, [r3, #1]
 8000872:	e037      	b.n	80008e4 <MCAL_GPIO_Init+0xc4>
 8000874:	687b      	ldr	r3, [r7, #4]
 8000876:	681b      	ldr	r3, [r3, #0]
 8000878:	4a6d      	ldr	r2, [pc, #436]	; (8000a30 <MCAL_GPIO_Init+0x210>)
 800087a:	4293      	cmp	r3, r2
 800087c:	d10d      	bne.n	800089a <MCAL_GPIO_Init+0x7a>
 800087e:	4b69      	ldr	r3, [pc, #420]	; (8000a24 <MCAL_GPIO_Init+0x204>)
 8000880:	789b      	ldrb	r3, [r3, #2]
 8000882:	2b01      	cmp	r3, #1
 8000884:	d009      	beq.n	800089a <MCAL_GPIO_Init+0x7a>
 8000886:	4b68      	ldr	r3, [pc, #416]	; (8000a28 <MCAL_GPIO_Init+0x208>)
 8000888:	699b      	ldr	r3, [r3, #24]
 800088a:	4a67      	ldr	r2, [pc, #412]	; (8000a28 <MCAL_GPIO_Init+0x208>)
 800088c:	f043 0310 	orr.w	r3, r3, #16
 8000890:	6193      	str	r3, [r2, #24]
 8000892:	4b64      	ldr	r3, [pc, #400]	; (8000a24 <MCAL_GPIO_Init+0x204>)
 8000894:	2201      	movs	r2, #1
 8000896:	709a      	strb	r2, [r3, #2]
 8000898:	e024      	b.n	80008e4 <MCAL_GPIO_Init+0xc4>
 800089a:	687b      	ldr	r3, [r7, #4]
 800089c:	681b      	ldr	r3, [r3, #0]
 800089e:	4a65      	ldr	r2, [pc, #404]	; (8000a34 <MCAL_GPIO_Init+0x214>)
 80008a0:	4293      	cmp	r3, r2
 80008a2:	d10d      	bne.n	80008c0 <MCAL_GPIO_Init+0xa0>
 80008a4:	4b5f      	ldr	r3, [pc, #380]	; (8000a24 <MCAL_GPIO_Init+0x204>)
 80008a6:	78db      	ldrb	r3, [r3, #3]
 80008a8:	2b01      	cmp	r3, #1
 80008aa:	d009      	beq.n	80008c0 <MCAL_GPIO_Init+0xa0>
 80008ac:	4b5e      	ldr	r3, [pc, #376]	; (8000a28 <MCAL_GPIO_Init+0x208>)
 80008ae:	699b      	ldr	r3, [r3, #24]
 80008b0:	4a5d      	ldr	r2, [pc, #372]	; (8000a28 <MCAL_GPIO_Init+0x208>)
 80008b2:	f043 0320 	orr.w	r3, r3, #32
 80008b6:	6193      	str	r3, [r2, #24]
 80008b8:	4b5a      	ldr	r3, [pc, #360]	; (8000a24 <MCAL_GPIO_Init+0x204>)
 80008ba:	2201      	movs	r2, #1
 80008bc:	70da      	strb	r2, [r3, #3]
 80008be:	e011      	b.n	80008e4 <MCAL_GPIO_Init+0xc4>
 80008c0:	687b      	ldr	r3, [r7, #4]
 80008c2:	681b      	ldr	r3, [r3, #0]
 80008c4:	4a5c      	ldr	r2, [pc, #368]	; (8000a38 <MCAL_GPIO_Init+0x218>)
 80008c6:	4293      	cmp	r3, r2
 80008c8:	d10c      	bne.n	80008e4 <MCAL_GPIO_Init+0xc4>
 80008ca:	4b56      	ldr	r3, [pc, #344]	; (8000a24 <MCAL_GPIO_Init+0x204>)
 80008cc:	791b      	ldrb	r3, [r3, #4]
 80008ce:	2b01      	cmp	r3, #1
 80008d0:	d008      	beq.n	80008e4 <MCAL_GPIO_Init+0xc4>
 80008d2:	4b55      	ldr	r3, [pc, #340]	; (8000a28 <MCAL_GPIO_Init+0x208>)
 80008d4:	699b      	ldr	r3, [r3, #24]
 80008d6:	4a54      	ldr	r2, [pc, #336]	; (8000a28 <MCAL_GPIO_Init+0x208>)
 80008d8:	f043 0340 	orr.w	r3, r3, #64	; 0x40
 80008dc:	6193      	str	r3, [r2, #24]
 80008de:	4b51      	ldr	r3, [pc, #324]	; (8000a24 <MCAL_GPIO_Init+0x204>)
 80008e0:	2201      	movs	r2, #1
 80008e2:	711a      	strb	r2, [r3, #4]
 80008e4:	687b      	ldr	r3, [r7, #4]
 80008e6:	799b      	ldrb	r3, [r3, #6]
 80008e8:	2b05      	cmp	r3, #5
 80008ea:	d908      	bls.n	80008fe <MCAL_GPIO_Init+0xde>
 80008ec:	4b4e      	ldr	r3, [pc, #312]	; (8000a28 <MCAL_GPIO_Init+0x208>)
 80008ee:	699b      	ldr	r3, [r3, #24]
 80008f0:	4a4d      	ldr	r2, [pc, #308]	; (8000a28 <MCAL_GPIO_Init+0x208>)
 80008f2:	f043 0301 	orr.w	r3, r3, #1
 80008f6:	6193      	str	r3, [r2, #24]
 80008f8:	4b4a      	ldr	r3, [pc, #296]	; (8000a24 <MCAL_GPIO_Init+0x204>)
 80008fa:	2201      	movs	r2, #1
 80008fc:	715a      	strb	r2, [r3, #5]
 80008fe:	2300      	movs	r3, #0
 8000900:	60bb      	str	r3, [r7, #8]
 8000902:	687b      	ldr	r3, [r7, #4]
 8000904:	889b      	ldrh	r3, [r3, #4]
 8000906:	2bff      	cmp	r3, #255	; 0xff
 8000908:	d802      	bhi.n	8000910 <MCAL_GPIO_Init+0xf0>
 800090a:	687b      	ldr	r3, [r7, #4]
 800090c:	681b      	ldr	r3, [r3, #0]
 800090e:	e002      	b.n	8000916 <MCAL_GPIO_Init+0xf6>
 8000910:	687b      	ldr	r3, [r7, #4]
 8000912:	681b      	ldr	r3, [r3, #0]
 8000914:	3304      	adds	r3, #4
 8000916:	60bb      	str	r3, [r7, #8]
 8000918:	2304      	movs	r3, #4
 800091a:	73fb      	strb	r3, [r7, #15]
 800091c:	687b      	ldr	r3, [r7, #4]
 800091e:	889b      	ldrh	r3, [r3, #4]
 8000920:	4618      	mov	r0, r3
 8000922:	f7ff ff19 	bl	8000758 <Get_CRx_Position>
 8000926:	4603      	mov	r3, r0
 8000928:	461a      	mov	r2, r3
 800092a:	230f      	movs	r3, #15
 800092c:	4093      	lsls	r3, r2
 800092e:	43da      	mvns	r2, r3
 8000930:	68bb      	ldr	r3, [r7, #8]
 8000932:	681b      	ldr	r3, [r3, #0]
 8000934:	401a      	ands	r2, r3
 8000936:	68bb      	ldr	r3, [r7, #8]
 8000938:	601a      	str	r2, [r3, #0]
 800093a:	687b      	ldr	r3, [r7, #4]
 800093c:	799b      	ldrb	r3, [r3, #6]
 800093e:	2b03      	cmp	r3, #3
 8000940:	d914      	bls.n	800096c <MCAL_GPIO_Init+0x14c>
 8000942:	687b      	ldr	r3, [r7, #4]
 8000944:	799b      	ldrb	r3, [r3, #6]
 8000946:	2b07      	cmp	r3, #7
 8000948:	d810      	bhi.n	800096c <MCAL_GPIO_Init+0x14c>
 800094a:	2300      	movs	r3, #0
 800094c:	73fb      	strb	r3, [r7, #15]
 800094e:	687b      	ldr	r3, [r7, #4]
 8000950:	799b      	ldrb	r3, [r3, #6]
 8000952:	3b04      	subs	r3, #4
 8000954:	009b      	lsls	r3, r3, #2
 8000956:	b25a      	sxtb	r2, r3
 8000958:	687b      	ldr	r3, [r7, #4]
 800095a:	79db      	ldrb	r3, [r3, #7]
 800095c:	b25b      	sxtb	r3, r3
 800095e:	4313      	orrs	r3, r2
 8000960:	b25b      	sxtb	r3, r3
 8000962:	b2db      	uxtb	r3, r3
 8000964:	f003 030f 	and.w	r3, r3, #15
 8000968:	73fb      	strb	r3, [r7, #15]
 800096a:	e037      	b.n	80009dc <MCAL_GPIO_Init+0x1bc>
 800096c:	2300      	movs	r3, #0
 800096e:	73fb      	strb	r3, [r7, #15]
 8000970:	687b      	ldr	r3, [r7, #4]
 8000972:	799b      	ldrb	r3, [r3, #6]
 8000974:	2b00      	cmp	r3, #0
 8000976:	d003      	beq.n	8000980 <MCAL_GPIO_Init+0x160>
 8000978:	687b      	ldr	r3, [r7, #4]
 800097a:	799b      	ldrb	r3, [r3, #6]
 800097c:	2b01      	cmp	r3, #1
 800097e:	d107      	bne.n	8000990 <MCAL_GPIO_Init+0x170>
 8000980:	687b      	ldr	r3, [r7, #4]
 8000982:	799b      	ldrb	r3, [r3, #6]
 8000984:	009b      	lsls	r3, r3, #2
 8000986:	b2db      	uxtb	r3, r3
 8000988:	f003 030f 	and.w	r3, r3, #15
 800098c:	73fb      	strb	r3, [r7, #15]
 800098e:	e025      	b.n	80009dc <MCAL_GPIO_Init+0x1bc>
 8000990:	687b      	ldr	r3, [r7, #4]
 8000992:	799b      	ldrb	r3, [r3, #6]
 8000994:	2b02      	cmp	r3, #2
 8000996:	d003      	beq.n	80009a0 <MCAL_GPIO_Init+0x180>
 8000998:	687b      	ldr	r3, [r7, #4]
 800099a:	799b      	ldrb	r3, [r3, #6]
 800099c:	2b03      	cmp	r3, #3
 800099e:	d11b      	bne.n	80009d8 <MCAL_GPIO_Init+0x1b8>
 80009a0:	2308      	movs	r3, #8
 80009a2:	73fb      	strb	r3, [r7, #15]
 80009a4:	687b      	ldr	r3, [r7, #4]
 80009a6:	799b      	ldrb	r3, [r3, #6]
 80009a8:	2b02      	cmp	r3, #2
 80009aa:	d10a      	bne.n	80009c2 <MCAL_GPIO_Init+0x1a2>
 80009ac:	687b      	ldr	r3, [r7, #4]
 80009ae:	681b      	ldr	r3, [r3, #0]
 80009b0:	68da      	ldr	r2, [r3, #12]
 80009b2:	687b      	ldr	r3, [r7, #4]
 80009b4:	889b      	ldrh	r3, [r3, #4]
 80009b6:	4619      	mov	r1, r3
 80009b8:	687b      	ldr	r3, [r7, #4]
 80009ba:	681b      	ldr	r3, [r3, #0]
 80009bc:	430a      	orrs	r2, r1
 80009be:	60da      	str	r2, [r3, #12]
 80009c0:	e00c      	b.n	80009dc <MCAL_GPIO_Init+0x1bc>
 80009c2:	687b      	ldr	r3, [r7, #4]
 80009c4:	681b      	ldr	r3, [r3, #0]
 80009c6:	68da      	ldr	r2, [r3, #12]
 80009c8:	687b      	ldr	r3, [r7, #4]
 80009ca:	889b      	ldrh	r3, [r3, #4]
 80009cc:	4619      	mov	r1, r3
 80009ce:	687b      	ldr	r3, [r7, #4]
 80009d0:	681b      	ldr	r3, [r3, #0]
 80009d2:	430a      	orrs	r2, r1
 80009d4:	60da      	str	r2, [r3, #12]
 80009d6:	e001      	b.n	80009dc <MCAL_GPIO_Init+0x1bc>
 80009d8:	2304      	movs	r3, #4
 80009da:	73fb      	strb	r3, [r7, #15]
 80009dc:	7bfc      	ldrb	r4, [r7, #15]
 80009de:	687b      	ldr	r3, [r7, #4]
 80009e0:	889b      	ldrh	r3, [r3, #4]
 80009e2:	4618      	mov	r0, r3
 80009e4:	f7ff feb8 	bl	8000758 <Get_CRx_Position>
 80009e8:	4603      	mov	r3, r0
 80009ea:	fa04 f303 	lsl.w	r3, r4, r3
 80009ee:	43da      	mvns	r2, r3
 80009f0:	68bb      	ldr	r3, [r7, #8]
 80009f2:	681b      	ldr	r3, [r3, #0]
 80009f4:	401a      	ands	r2, r3
 80009f6:	68bb      	ldr	r3, [r7, #8]
 80009f8:	601a      	str	r2, [r3, #0]
 80009fa:	7bfc      	ldrb	r4, [r7, #15]
 80009fc:	687b      	ldr	r3, [r7, #4]
 80009fe:	889b      	ldrh	r3, [r3, #4]
 8000a00:	4618      	mov	r0, r3
 8000a02:	f7ff fea9 	bl	8000758 <Get_CRx_Position>
 8000a06:	4603      	mov	r3, r0
 8000a08:	fa04 f203 	lsl.w	r2, r4, r3
 8000a0c:	68bb      	ldr	r3, [r7, #8]
 8000a0e:	681b      	ldr	r3, [r3, #0]
 8000a10:	431a      	orrs	r2, r3
 8000a12:	68bb      	ldr	r3, [r7, #8]
 8000a14:	601a      	str	r2, [r3, #0]
 8000a16:	bf00      	nop
 8000a18:	3714      	adds	r7, #20
 8000a1a:	46bd      	mov	sp, r7
 8000a1c:	bd90      	pop	{r4, r7, pc}
 8000a1e:	bf00      	nop
 8000a20:	40010800 	andmi	r0, r1, r0, lsl #16
 8000a24:	20000058 	andcs	r0, r0, r8, asr r0
 8000a28:	40021000 	andmi	r1, r2, r0
 8000a2c:	40010c00 	andmi	r0, r1, r0, lsl #24
 8000a30:	40011000 	andmi	r1, r1, r0
 8000a34:	40011400 	andmi	r1, r1, r0, lsl #8
 8000a38:	40011800 	andmi	r1, r1, r0, lsl #16

08000a3c <TIM2_IRQHandler>:
 8000a3c:	b580      	push	{r7, lr}
 8000a3e:	af00      	add	r7, sp, #0
 8000a40:	f04f 4380 	mov.w	r3, #1073741824	; 0x40000000
 8000a44:	691b      	ldr	r3, [r3, #16]
 8000a46:	f003 0301 	and.w	r3, r3, #1
 8000a4a:	2b00      	cmp	r3, #0
 8000a4c:	d012      	beq.n	8000a74 <TIM2_IRQHandler+0x38>
 8000a4e:	f04f 4380 	mov.w	r3, #1073741824	; 0x40000000
 8000a52:	681b      	ldr	r3, [r3, #0]
 8000a54:	f04f 4280 	mov.w	r2, #1073741824	; 0x40000000
 8000a58:	f023 0301 	bic.w	r3, r3, #1
 8000a5c:	6013      	str	r3, [r2, #0]
 8000a5e:	f04f 4380 	mov.w	r3, #1073741824	; 0x40000000
 8000a62:	691b      	ldr	r3, [r3, #16]
 8000a64:	f04f 4280 	mov.w	r2, #1073741824	; 0x40000000
 8000a68:	f023 0301 	bic.w	r3, r3, #1
 8000a6c:	6113      	str	r3, [r2, #16]
 8000a6e:	4b0b      	ldr	r3, [pc, #44]	; (8000a9c <TIM2_IRQHandler+0x60>)
 8000a70:	681b      	ldr	r3, [r3, #0]
 8000a72:	4798      	blx	r3
 8000a74:	f04f 4380 	mov.w	r3, #1073741824	; 0x40000000
 8000a78:	691b      	ldr	r3, [r3, #16]
 8000a7a:	f003 0340 	and.w	r3, r3, #64	; 0x40
 8000a7e:	2b00      	cmp	r3, #0
 8000a80:	d00a      	beq.n	8000a98 <TIM2_IRQHandler+0x5c>
 8000a82:	f04f 4380 	mov.w	r3, #1073741824	; 0x40000000
 8000a86:	691b      	ldr	r3, [r3, #16]
 8000a88:	f04f 4280 	mov.w	r2, #1073741824	; 0x40000000
 8000a8c:	f023 0340 	bic.w	r3, r3, #64	; 0x40
 8000a90:	6113      	str	r3, [r2, #16]
 8000a92:	4b02      	ldr	r3, [pc, #8]	; (8000a9c <TIM2_IRQHandler+0x60>)
 8000a94:	681b      	ldr	r3, [r3, #0]
 8000a96:	4798      	blx	r3
 8000a98:	bf00      	nop
 8000a9a:	bd80      	pop	{r7, pc}
 8000a9c:	20000060 	andcs	r0, r0, r0, rrx

08000aa0 <TIM3_IRQHandler>:
 8000aa0:	b580      	push	{r7, lr}
 8000aa2:	af00      	add	r7, sp, #0
 8000aa4:	4b12      	ldr	r3, [pc, #72]	; (8000af0 <TIM3_IRQHandler+0x50>)
 8000aa6:	691b      	ldr	r3, [r3, #16]
 8000aa8:	f003 0301 	and.w	r3, r3, #1
 8000aac:	2b00      	cmp	r3, #0
 8000aae:	d00e      	beq.n	8000ace <TIM3_IRQHandler+0x2e>
 8000ab0:	4b0f      	ldr	r3, [pc, #60]	; (8000af0 <TIM3_IRQHandler+0x50>)
 8000ab2:	681b      	ldr	r3, [r3, #0]
 8000ab4:	4a0e      	ldr	r2, [pc, #56]	; (8000af0 <TIM3_IRQHandler+0x50>)
 8000ab6:	f023 0301 	bic.w	r3, r3, #1
 8000aba:	6013      	str	r3, [r2, #0]
 8000abc:	4b0c      	ldr	r3, [pc, #48]	; (8000af0 <TIM3_IRQHandler+0x50>)
 8000abe:	691b      	ldr	r3, [r3, #16]
 8000ac0:	4a0b      	ldr	r2, [pc, #44]	; (8000af0 <TIM3_IRQHandler+0x50>)
 8000ac2:	f023 0301 	bic.w	r3, r3, #1
 8000ac6:	6113      	str	r3, [r2, #16]
 8000ac8:	4b0a      	ldr	r3, [pc, #40]	; (8000af4 <TIM3_IRQHandler+0x54>)
 8000aca:	685b      	ldr	r3, [r3, #4]
 8000acc:	4798      	blx	r3
 8000ace:	4b08      	ldr	r3, [pc, #32]	; (8000af0 <TIM3_IRQHandler+0x50>)
 8000ad0:	691b      	ldr	r3, [r3, #16]
 8000ad2:	f003 0340 	and.w	r3, r3, #64	; 0x40
 8000ad6:	2b00      	cmp	r3, #0
 8000ad8:	d008      	beq.n	8000aec <TIM3_IRQHandler+0x4c>
 8000ada:	4b05      	ldr	r3, [pc, #20]	; (8000af0 <TIM3_IRQHandler+0x50>)
 8000adc:	691b      	ldr	r3, [r3, #16]
 8000ade:	4a04      	ldr	r2, [pc, #16]	; (8000af0 <TIM3_IRQHandler+0x50>)
 8000ae0:	f023 0340 	bic.w	r3, r3, #64	; 0x40
 8000ae4:	6113      	str	r3, [r2, #16]
 8000ae6:	4b03      	ldr	r3, [pc, #12]	; (8000af4 <TIM3_IRQHandler+0x54>)
 8000ae8:	685b      	ldr	r3, [r3, #4]
 8000aea:	4798      	blx	r3
 8000aec:	bf00      	nop
 8000aee:	bd80      	pop	{r7, pc}
 8000af0:	40000400 	andmi	r0, r0, r0, lsl #8
 8000af4:	20000060 	andcs	r0, r0, r0, rrx

08000af8 <TIM4_IRQHandler>:
 8000af8:	b580      	push	{r7, lr}
 8000afa:	af00      	add	r7, sp, #0
 8000afc:	4b12      	ldr	r3, [pc, #72]	; (8000b48 <TIM4_IRQHandler+0x50>)
 8000afe:	691b      	ldr	r3, [r3, #16]
 8000b00:	f003 0301 	and.w	r3, r3, #1
 8000b04:	2b00      	cmp	r3, #0
 8000b06:	d00e      	beq.n	8000b26 <TIM4_IRQHandler+0x2e>
 8000b08:	4b0f      	ldr	r3, [pc, #60]	; (8000b48 <TIM4_IRQHandler+0x50>)
 8000b0a:	681b      	ldr	r3, [r3, #0]
 8000b0c:	4a0e      	ldr	r2, [pc, #56]	; (8000b48 <TIM4_IRQHandler+0x50>)
 8000b0e:	f023 0301 	bic.w	r3, r3, #1
 8000b12:	6013      	str	r3, [r2, #0]
 8000b14:	4b0c      	ldr	r3, [pc, #48]	; (8000b48 <TIM4_IRQHandler+0x50>)
 8000b16:	691b      	ldr	r3, [r3, #16]
 8000b18:	4a0b      	ldr	r2, [pc, #44]	; (8000b48 <TIM4_IRQHandler+0x50>)
 8000b1a:	f023 0301 	bic.w	r3, r3, #1
 8000b1e:	6113      	str	r3, [r2, #16]
 8000b20:	4b0a      	ldr	r3, [pc, #40]	; (8000b4c <TIM4_IRQHandler+0x54>)
 8000b22:	689b      	ldr	r3, [r3, #8]
 8000b24:	4798      	blx	r3
 8000b26:	4b08      	ldr	r3, [pc, #32]	; (8000b48 <TIM4_IRQHandler+0x50>)
 8000b28:	691b      	ldr	r3, [r3, #16]
 8000b2a:	f003 0340 	and.w	r3, r3, #64	; 0x40
 8000b2e:	2b00      	cmp	r3, #0
 8000b30:	d008      	beq.n	8000b44 <TIM4_IRQHandler+0x4c>
 8000b32:	4b05      	ldr	r3, [pc, #20]	; (8000b48 <TIM4_IRQHandler+0x50>)
 8000b34:	691b      	ldr	r3, [r3, #16]
 8000b36:	4a04      	ldr	r2, [pc, #16]	; (8000b48 <TIM4_IRQHandler+0x50>)
 8000b38:	f023 0340 	bic.w	r3, r3, #64	; 0x40
 8000b3c:	6113      	str	r3, [r2, #16]
 8000b3e:	4b03      	ldr	r3, [pc, #12]	; (8000b4c <TIM4_IRQHandler+0x54>)
 8000b40:	689b      	ldr	r3, [r3, #8]
 8000b42:	4798      	blx	r3
 8000b44:	bf00      	nop
 8000b46:	bd80      	pop	{r7, pc}
 8000b48:	40000800 	andmi	r0, r0, r0, lsl #16
 8000b4c:	20000060 	andcs	r0, r0, r0, rrx

08000b50 <I2C1_EV_IRQHandler>:
 8000b50:	b580      	push	{r7, lr}
 8000b52:	b084      	sub	sp, #16
 8000b54:	af00      	add	r7, sp, #0
 8000b56:	2300      	movs	r3, #0
 8000b58:	603b      	str	r3, [r7, #0]
 8000b5a:	4b39      	ldr	r3, [pc, #228]	; (8000c40 <I2C1_EV_IRQHandler+0xf0>)
 8000b5c:	685b      	ldr	r3, [r3, #4]
 8000b5e:	f403 7300 	and.w	r3, r3, #512	; 0x200
 8000b62:	60fb      	str	r3, [r7, #12]
 8000b64:	4b36      	ldr	r3, [pc, #216]	; (8000c40 <I2C1_EV_IRQHandler+0xf0>)
 8000b66:	685b      	ldr	r3, [r3, #4]
 8000b68:	f403 6380 	and.w	r3, r3, #1024	; 0x400
 8000b6c:	60bb      	str	r3, [r7, #8]
 8000b6e:	4b34      	ldr	r3, [pc, #208]	; (8000c40 <I2C1_EV_IRQHandler+0xf0>)
 8000b70:	695b      	ldr	r3, [r3, #20]
 8000b72:	f003 0304 	and.w	r3, r3, #4
 8000b76:	607b      	str	r3, [r7, #4]
 8000b78:	68fb      	ldr	r3, [r7, #12]
 8000b7a:	2b00      	cmp	r3, #0
 8000b7c:	d00a      	beq.n	8000b94 <I2C1_EV_IRQHandler+0x44>
 8000b7e:	687b      	ldr	r3, [r7, #4]
 8000b80:	2b00      	cmp	r3, #0
 8000b82:	d007      	beq.n	8000b94 <I2C1_EV_IRQHandler+0x44>
 8000b84:	4b2e      	ldr	r3, [pc, #184]	; (8000c40 <I2C1_EV_IRQHandler+0xf0>)
 8000b86:	4a2e      	ldr	r2, [pc, #184]	; (8000c40 <I2C1_EV_IRQHandler+0xf0>)
 8000b88:	681b      	ldr	r3, [r3, #0]
 8000b8a:	6013      	str	r3, [r2, #0]
 8000b8c:	4b2d      	ldr	r3, [pc, #180]	; (8000c44 <I2C1_EV_IRQHandler+0xf4>)
 8000b8e:	681b      	ldr	r3, [r3, #0]
 8000b90:	2004      	movs	r0, #4
 8000b92:	4798      	blx	r3
 8000b94:	4b2a      	ldr	r3, [pc, #168]	; (8000c40 <I2C1_EV_IRQHandler+0xf0>)
 8000b96:	695b      	ldr	r3, [r3, #20]
 8000b98:	f003 0301 	and.w	r3, r3, #1
 8000b9c:	607b      	str	r3, [r7, #4]
 8000b9e:	68fb      	ldr	r3, [r7, #12]
 8000ba0:	2b00      	cmp	r3, #0
 8000ba2:	d00c      	beq.n	8000bbe <I2C1_EV_IRQHandler+0x6e>
 8000ba4:	687b      	ldr	r3, [r7, #4]
 8000ba6:	2b00      	cmp	r3, #0
 8000ba8:	d009      	beq.n	8000bbe <I2C1_EV_IRQHandler+0x6e>
 8000baa:	4b25      	ldr	r3, [pc, #148]	; (8000c40 <I2C1_EV_IRQHandler+0xf0>)
 8000bac:	699b      	ldr	r3, [r3, #24]
 8000bae:	f403 3380 	and.w	r3, r3, #65536	; 0x10000
 8000bb2:	2b00      	cmp	r3, #0
 8000bb4:	d103      	bne.n	8000bbe <I2C1_EV_IRQHandler+0x6e>
 8000bb6:	4b23      	ldr	r3, [pc, #140]	; (8000c44 <I2C1_EV_IRQHandler+0xf4>)
 8000bb8:	681b      	ldr	r3, [r3, #0]
 8000bba:	2001      	movs	r0, #1
 8000bbc:	4798      	blx	r3
 8000bbe:	4b20      	ldr	r3, [pc, #128]	; (8000c40 <I2C1_EV_IRQHandler+0xf0>)
 8000bc0:	695b      	ldr	r3, [r3, #20]
 8000bc2:	f003 0307 	and.w	r3, r3, #7
 8000bc6:	607b      	str	r3, [r7, #4]
 8000bc8:	68fb      	ldr	r3, [r7, #12]
 8000bca:	2b00      	cmp	r3, #0
 8000bcc:	d015      	beq.n	8000bfa <I2C1_EV_IRQHandler+0xaa>
 8000bce:	68bb      	ldr	r3, [r7, #8]
 8000bd0:	2b00      	cmp	r3, #0
 8000bd2:	d012      	beq.n	8000bfa <I2C1_EV_IRQHandler+0xaa>
 8000bd4:	687b      	ldr	r3, [r7, #4]
 8000bd6:	2b00      	cmp	r3, #0
 8000bd8:	d00f      	beq.n	8000bfa <I2C1_EV_IRQHandler+0xaa>
 8000bda:	4b19      	ldr	r3, [pc, #100]	; (8000c40 <I2C1_EV_IRQHandler+0xf0>)
 8000bdc:	699b      	ldr	r3, [r3, #24]
 8000bde:	f403 3380 	and.w	r3, r3, #65536	; 0x10000
 8000be2:	2b00      	cmp	r3, #0
 8000be4:	d109      	bne.n	8000bfa <I2C1_EV_IRQHandler+0xaa>
 8000be6:	4b16      	ldr	r3, [pc, #88]	; (8000c40 <I2C1_EV_IRQHandler+0xf0>)
 8000be8:	699b      	ldr	r3, [r3, #24]
 8000bea:	f403 2380 	and.w	r3, r3, #262144	; 0x40000
 8000bee:	2b00      	cmp	r3, #0
 8000bf0:	d003      	beq.n	8000bfa <I2C1_EV_IRQHandler+0xaa>
 8000bf2:	4b14      	ldr	r3, [pc, #80]	; (8000c44 <I2C1_EV_IRQHandler+0xf4>)
 8000bf4:	681b      	ldr	r3, [r3, #0]
 8000bf6:	2006      	movs	r0, #6
 8000bf8:	4798      	blx	r3
 8000bfa:	4b11      	ldr	r3, [pc, #68]	; (8000c40 <I2C1_EV_IRQHandler+0xf0>)
 8000bfc:	695b      	ldr	r3, [r3, #20]
 8000bfe:	f003 0306 	and.w	r3, r3, #6
 8000c02:	607b      	str	r3, [r7, #4]
 8000c04:	68fb      	ldr	r3, [r7, #12]
 8000c06:	2b00      	cmp	r3, #0
 8000c08:	d015      	beq.n	8000c36 <I2C1_EV_IRQHandler+0xe6>
 8000c0a:	68bb      	ldr	r3, [r7, #8]
 8000c0c:	2b00      	cmp	r3, #0
 8000c0e:	d012      	beq.n	8000c36 <I2C1_EV_IRQHandler+0xe6>
 8000c10:	687b      	ldr	r3, [r7, #4]
 8000c12:	2b00      	cmp	r3, #0
 8000c14:	d00f      	beq.n	8000c36 <I2C1_EV_IRQHandler+0xe6>
 8000c16:	4b0a      	ldr	r3, [pc, #40]	; (8000c40 <I2C1_EV_IRQHandler+0xf0>)
 8000c18:	699b      	ldr	r3, [r3, #24]
 8000c1a:	f403 3380 	and.w	r3, r3, #65536	; 0x10000
 8000c1e:	2b00      	cmp	r3, #0
 8000c20:	d109      	bne.n	8000c36 <I2C1_EV_IRQHandler+0xe6>
 8000c22:	4b07      	ldr	r3, [pc, #28]	; (8000c40 <I2C1_EV_IRQHandler+0xf0>)
 8000c24:	699b      	ldr	r3, [r3, #24]
 8000c26:	f403 2380 	and.w	r3, r3, #262144	; 0x40000
 8000c2a:	2b00      	cmp	r3, #0
 8000c2c:	d003      	beq.n	8000c36 <I2C1_EV_IRQHandler+0xe6>
 8000c2e:	4b05      	ldr	r3, [pc, #20]	; (8000c44 <I2C1_EV_IRQHandler+0xf4>)
 8000c30:	681b      	ldr	r3, [r3, #0]
 8000c32:	2005      	movs	r0, #5
 8000c34:	4798      	blx	r3
 8000c36:	683b      	ldr	r3, [r7, #0]
 8000c38:	bf00      	nop
 8000c3a:	3710      	adds	r7, #16
 8000c3c:	46bd      	mov	sp, r7
 8000c3e:	bd80      	pop	{r7, pc}
 8000c40:	40005400 	andmi	r5, r0, r0, lsl #8
 8000c44:	2000006c 	andcs	r0, r0, ip, rrx

08000c48 <I2C1_ER_IRQHandler>:
 8000c48:	b580      	push	{r7, lr}
 8000c4a:	b082      	sub	sp, #8
 8000c4c:	af00      	add	r7, sp, #0
 8000c4e:	4b39      	ldr	r3, [pc, #228]	; (8000d34 <I2C1_ER_IRQHandler+0xec>)
 8000c50:	685b      	ldr	r3, [r3, #4]
 8000c52:	f403 7380 	and.w	r3, r3, #256	; 0x100
 8000c56:	607b      	str	r3, [r7, #4]
 8000c58:	4b36      	ldr	r3, [pc, #216]	; (8000d34 <I2C1_ER_IRQHandler+0xec>)
 8000c5a:	695b      	ldr	r3, [r3, #20]
 8000c5c:	f003 0301 	and.w	r3, r3, #1
 8000c60:	603b      	str	r3, [r7, #0]
 8000c62:	683b      	ldr	r3, [r7, #0]
 8000c64:	2b00      	cmp	r3, #0
 8000c66:	d00c      	beq.n	8000c82 <I2C1_ER_IRQHandler+0x3a>
 8000c68:	687b      	ldr	r3, [r7, #4]
 8000c6a:	2b00      	cmp	r3, #0
 8000c6c:	d009      	beq.n	8000c82 <I2C1_ER_IRQHandler+0x3a>
 8000c6e:	4b31      	ldr	r3, [pc, #196]	; (8000d34 <I2C1_ER_IRQHandler+0xec>)
 8000c70:	695b      	ldr	r3, [r3, #20]
 8000c72:	4a30      	ldr	r2, [pc, #192]	; (8000d34 <I2C1_ER_IRQHandler+0xec>)
 8000c74:	f423 7380 	bic.w	r3, r3, #256	; 0x100
 8000c78:	6153      	str	r3, [r2, #20]
 8000c7a:	4b2f      	ldr	r3, [pc, #188]	; (8000d38 <I2C1_ER_IRQHandler+0xf0>)
 8000c7c:	681b      	ldr	r3, [r3, #0]
 8000c7e:	2000      	movs	r0, #0
 8000c80:	4798      	blx	r3
 8000c82:	4b2c      	ldr	r3, [pc, #176]	; (8000d34 <I2C1_ER_IRQHandler+0xec>)
 8000c84:	695b      	ldr	r3, [r3, #20]
 8000c86:	f003 0302 	and.w	r3, r3, #2
 8000c8a:	603b      	str	r3, [r7, #0]
 8000c8c:	683b      	ldr	r3, [r7, #0]
 8000c8e:	2b00      	cmp	r3, #0
 8000c90:	d00c      	beq.n	8000cac <I2C1_ER_IRQHandler+0x64>
 8000c92:	687b      	ldr	r3, [r7, #4]
 8000c94:	2b00      	cmp	r3, #0
 8000c96:	d009      	beq.n	8000cac <I2C1_ER_IRQHandler+0x64>
 8000c98:	4b26      	ldr	r3, [pc, #152]	; (8000d34 <I2C1_ER_IRQHandler+0xec>)
 8000c9a:	695b      	ldr	r3, [r3, #20]
 8000c9c:	4a25      	ldr	r2, [pc, #148]	; (8000d34 <I2C1_ER_IRQHandler+0xec>)
 8000c9e:	f423 7300 	bic.w	r3, r3, #512	; 0x200
 8000ca2:	6153      	str	r3, [r2, #20]
 8000ca4:	4b24      	ldr	r3, [pc, #144]	; (8000d38 <I2C1_ER_IRQHandler+0xf0>)
 8000ca6:	681b      	ldr	r3, [r3, #0]
 8000ca8:	2001      	movs	r0, #1
 8000caa:	4798      	blx	r3
 8000cac:	4b21      	ldr	r3, [pc, #132]	; (8000d34 <I2C1_ER_IRQHandler+0xec>)
 8000cae:	695b      	ldr	r3, [r3, #20]
 8000cb0:	f003 0304 	and.w	r3, r3, #4
 8000cb4:	603b      	str	r3, [r7, #0]
 8000cb6:	683b      	ldr	r3, [r7, #0]
 8000cb8:	2b00      	cmp	r3, #0
 8000cba:	d00c      	beq.n	8000cd6 <I2C1_ER_IRQHandler+0x8e>
 8000cbc:	687b      	ldr	r3, [r7, #4]
 8000cbe:	2b00      	cmp	r3, #0
 8000cc0:	d009      	beq.n	8000cd6 <I2C1_ER_IRQHandler+0x8e>
 8000cc2:	4b1c      	ldr	r3, [pc, #112]	; (8000d34 <I2C1_ER_IRQHandler+0xec>)
 8000cc4:	695b      	ldr	r3, [r3, #20]
 8000cc6:	4a1b      	ldr	r2, [pc, #108]	; (8000d34 <I2C1_ER_IRQHandler+0xec>)
 8000cc8:	f423 6380 	bic.w	r3, r3, #1024	; 0x400
 8000ccc:	6153      	str	r3, [r2, #20]
 8000cce:	4b1a      	ldr	r3, [pc, #104]	; (8000d38 <I2C1_ER_IRQHandler+0xf0>)
 8000cd0:	681b      	ldr	r3, [r3, #0]
 8000cd2:	2002      	movs	r0, #2
 8000cd4:	4798      	blx	r3
 8000cd6:	4b17      	ldr	r3, [pc, #92]	; (8000d34 <I2C1_ER_IRQHandler+0xec>)
 8000cd8:	695b      	ldr	r3, [r3, #20]
 8000cda:	f003 0308 	and.w	r3, r3, #8
 8000cde:	603b      	str	r3, [r7, #0]
 8000ce0:	683b      	ldr	r3, [r7, #0]
 8000ce2:	2b00      	cmp	r3, #0
 8000ce4:	d00c      	beq.n	8000d00 <I2C1_ER_IRQHandler+0xb8>
 8000ce6:	687b      	ldr	r3, [r7, #4]
 8000ce8:	2b00      	cmp	r3, #0
 8000cea:	d009      	beq.n	8000d00 <I2C1_ER_IRQHandler+0xb8>
 8000cec:	4b11      	ldr	r3, [pc, #68]	; (8000d34 <I2C1_ER_IRQHandler+0xec>)
 8000cee:	695b      	ldr	r3, [r3, #20]
 8000cf0:	4a10      	ldr	r2, [pc, #64]	; (8000d34 <I2C1_ER_IRQHandler+0xec>)
 8000cf2:	f423 6300 	bic.w	r3, r3, #2048	; 0x800
 8000cf6:	6153      	str	r3, [r2, #20]
 8000cf8:	4b0f      	ldr	r3, [pc, #60]	; (8000d38 <I2C1_ER_IRQHandler+0xf0>)
 8000cfa:	681b      	ldr	r3, [r3, #0]
 8000cfc:	2003      	movs	r0, #3
 8000cfe:	4798      	blx	r3
 8000d00:	4b0c      	ldr	r3, [pc, #48]	; (8000d34 <I2C1_ER_IRQHandler+0xec>)
 8000d02:	695b      	ldr	r3, [r3, #20]
 8000d04:	f003 0320 	and.w	r3, r3, #32
 8000d08:	603b      	str	r3, [r7, #0]
 8000d0a:	683b      	ldr	r3, [r7, #0]
 8000d0c:	2b00      	cmp	r3, #0
 8000d0e:	d00c      	beq.n	8000d2a <I2C1_ER_IRQHandler+0xe2>
 8000d10:	687b      	ldr	r3, [r7, #4]
 8000d12:	2b00      	cmp	r3, #0
 8000d14:	d009      	beq.n	8000d2a <I2C1_ER_IRQHandler+0xe2>
 8000d16:	4b07      	ldr	r3, [pc, #28]	; (8000d34 <I2C1_ER_IRQHandler+0xec>)
 8000d18:	695b      	ldr	r3, [r3, #20]
 8000d1a:	4a06      	ldr	r2, [pc, #24]	; (8000d34 <I2C1_ER_IRQHandler+0xec>)
 8000d1c:	f423 4380 	bic.w	r3, r3, #16384	; 0x4000
 8000d20:	6153      	str	r3, [r2, #20]
 8000d22:	4b05      	ldr	r3, [pc, #20]	; (8000d38 <I2C1_ER_IRQHandler+0xf0>)
 8000d24:	681b      	ldr	r3, [r3, #0]
 8000d26:	2005      	movs	r0, #5
 8000d28:	4798      	blx	r3
 8000d2a:	bf00      	nop
 8000d2c:	3708      	adds	r7, #8
 8000d2e:	46bd      	mov	sp, r7
 8000d30:	bd80      	pop	{r7, pc}
 8000d32:	bf00      	nop
 8000d34:	40005400 	andmi	r5, r0, r0, lsl #8
 8000d38:	20000074 	andcs	r0, r0, r4, ror r0

08000d3c <I2C2_EV_IRQHandler>:
 8000d3c:	b580      	push	{r7, lr}
 8000d3e:	b084      	sub	sp, #16
 8000d40:	af00      	add	r7, sp, #0
 8000d42:	2300      	movs	r3, #0
 8000d44:	603b      	str	r3, [r7, #0]
 8000d46:	4b39      	ldr	r3, [pc, #228]	; (8000e2c <I2C2_EV_IRQHandler+0xf0>)
 8000d48:	685b      	ldr	r3, [r3, #4]
 8000d4a:	f403 7300 	and.w	r3, r3, #512	; 0x200
 8000d4e:	60fb      	str	r3, [r7, #12]
 8000d50:	4b36      	ldr	r3, [pc, #216]	; (8000e2c <I2C2_EV_IRQHandler+0xf0>)
 8000d52:	685b      	ldr	r3, [r3, #4]
 8000d54:	f403 6380 	and.w	r3, r3, #1024	; 0x400
 8000d58:	60bb      	str	r3, [r7, #8]
 8000d5a:	4b34      	ldr	r3, [pc, #208]	; (8000e2c <I2C2_EV_IRQHandler+0xf0>)
 8000d5c:	695b      	ldr	r3, [r3, #20]
 8000d5e:	f003 0304 	and.w	r3, r3, #4
 8000d62:	607b      	str	r3, [r7, #4]
 8000d64:	68fb      	ldr	r3, [r7, #12]
 8000d66:	2b00      	cmp	r3, #0
 8000d68:	d00a      	beq.n	8000d80 <I2C2_EV_IRQHandler+0x44>
 8000d6a:	687b      	ldr	r3, [r7, #4]
 8000d6c:	2b00      	cmp	r3, #0
 8000d6e:	d007      	beq.n	8000d80 <I2C2_EV_IRQHandler+0x44>
 8000d70:	4b2e      	ldr	r3, [pc, #184]	; (8000e2c <I2C2_EV_IRQHandler+0xf0>)
 8000d72:	4a2e      	ldr	r2, [pc, #184]	; (8000e2c <I2C2_EV_IRQHandler+0xf0>)
 8000d74:	681b      	ldr	r3, [r3, #0]
 8000d76:	6013      	str	r3, [r2, #0]
 8000d78:	4b2d      	ldr	r3, [pc, #180]	; (8000e30 <I2C2_EV_IRQHandler+0xf4>)
 8000d7a:	681b      	ldr	r3, [r3, #0]
 8000d7c:	2004      	movs	r0, #4
 8000d7e:	4798      	blx	r3
 8000d80:	4b2a      	ldr	r3, [pc, #168]	; (8000e2c <I2C2_EV_IRQHandler+0xf0>)
 8000d82:	695b      	ldr	r3, [r3, #20]
 8000d84:	f003 0301 	and.w	r3, r3, #1
 8000d88:	607b      	str	r3, [r7, #4]
 8000d8a:	68fb      	ldr	r3, [r7, #12]
 8000d8c:	2b00      	cmp	r3, #0
 8000d8e:	d00c      	beq.n	8000daa <I2C2_EV_IRQHandler+0x6e>
 8000d90:	687b      	ldr	r3, [r7, #4]
 8000d92:	2b00      	cmp	r3, #0
 8000d94:	d009      	beq.n	8000daa <I2C2_EV_IRQHandler+0x6e>
 8000d96:	4b25      	ldr	r3, [pc, #148]	; (8000e2c <I2C2_EV_IRQHandler+0xf0>)
 8000d98:	699b      	ldr	r3, [r3, #24]
 8000d9a:	f403 3380 	and.w	r3, r3, #65536	; 0x10000
 8000d9e:	2b00      	cmp	r3, #0
 8000da0:	d103      	bne.n	8000daa <I2C2_EV_IRQHandler+0x6e>
 8000da2:	4b23      	ldr	r3, [pc, #140]	; (8000e30 <I2C2_EV_IRQHandler+0xf4>)
 8000da4:	681b      	ldr	r3, [r3, #0]
 8000da6:	2001      	movs	r0, #1
 8000da8:	4798      	blx	r3
 8000daa:	4b20      	ldr	r3, [pc, #128]	; (8000e2c <I2C2_EV_IRQHandler+0xf0>)
 8000dac:	695b      	ldr	r3, [r3, #20]
 8000dae:	f003 0307 	and.w	r3, r3, #7
 8000db2:	607b      	str	r3, [r7, #4]
 8000db4:	68fb      	ldr	r3, [r7, #12]
 8000db6:	2b00      	cmp	r3, #0
 8000db8:	d015      	beq.n	8000de6 <I2C2_EV_IRQHandler+0xaa>
 8000dba:	68bb      	ldr	r3, [r7, #8]
 8000dbc:	2b00      	cmp	r3, #0
 8000dbe:	d012      	beq.n	8000de6 <I2C2_EV_IRQHandler+0xaa>
 8000dc0:	687b      	ldr	r3, [r7, #4]
 8000dc2:	2b00      	cmp	r3, #0
 8000dc4:	d00f      	beq.n	8000de6 <I2C2_EV_IRQHandler+0xaa>
 8000dc6:	4b19      	ldr	r3, [pc, #100]	; (8000e2c <I2C2_EV_IRQHandler+0xf0>)
 8000dc8:	699b      	ldr	r3, [r3, #24]
 8000dca:	f403 3380 	and.w	r3, r3, #65536	; 0x10000
 8000dce:	2b00      	cmp	r3, #0
 8000dd0:	d109      	bne.n	8000de6 <I2C2_EV_IRQHandler+0xaa>
 8000dd2:	4b16      	ldr	r3, [pc, #88]	; (8000e2c <I2C2_EV_IRQHandler+0xf0>)
 8000dd4:	699b      	ldr	r3, [r3, #24]
 8000dd6:	f403 2380 	and.w	r3, r3, #262144	; 0x40000
 8000dda:	2b00      	cmp	r3, #0
 8000ddc:	d003      	beq.n	8000de6 <I2C2_EV_IRQHandler+0xaa>
 8000dde:	4b14      	ldr	r3, [pc, #80]	; (8000e30 <I2C2_EV_IRQHandler+0xf4>)
 8000de0:	681b      	ldr	r3, [r3, #0]
 8000de2:	2006      	movs	r0, #6
 8000de4:	4798      	blx	r3
 8000de6:	4b11      	ldr	r3, [pc, #68]	; (8000e2c <I2C2_EV_IRQHandler+0xf0>)
 8000de8:	695b      	ldr	r3, [r3, #20]
 8000dea:	f003 0306 	and.w	r3, r3, #6
 8000dee:	607b      	str	r3, [r7, #4]
 8000df0:	68fb      	ldr	r3, [r7, #12]
 8000df2:	2b00      	cmp	r3, #0
 8000df4:	d015      	beq.n	8000e22 <I2C2_EV_IRQHandler+0xe6>
 8000df6:	68bb      	ldr	r3, [r7, #8]
 8000df8:	2b00      	cmp	r3, #0
 8000dfa:	d012      	beq.n	8000e22 <I2C2_EV_IRQHandler+0xe6>
 8000dfc:	687b      	ldr	r3, [r7, #4]
 8000dfe:	2b00      	cmp	r3, #0
 8000e00:	d00f      	beq.n	8000e22 <I2C2_EV_IRQHandler+0xe6>
 8000e02:	4b0c      	ldr	r3, [pc, #48]	; (8000e34 <I2C2_EV_IRQHandler+0xf8>)
 8000e04:	699b      	ldr	r3, [r3, #24]
 8000e06:	f403 3380 	and.w	r3, r3, #65536	; 0x10000
 8000e0a:	2b00      	cmp	r3, #0
 8000e0c:	d109      	bne.n	8000e22 <I2C2_EV_IRQHandler+0xe6>
 8000e0e:	4b07      	ldr	r3, [pc, #28]	; (8000e2c <I2C2_EV_IRQHandler+0xf0>)
 8000e10:	699b      	ldr	r3, [r3, #24]
 8000e12:	f403 2380 	and.w	r3, r3, #262144	; 0x40000
 8000e16:	2b00      	cmp	r3, #0
 8000e18:	d003      	beq.n	8000e22 <I2C2_EV_IRQHandler+0xe6>
 8000e1a:	4b05      	ldr	r3, [pc, #20]	; (8000e30 <I2C2_EV_IRQHandler+0xf4>)
 8000e1c:	681b      	ldr	r3, [r3, #0]
 8000e1e:	2005      	movs	r0, #5
 8000e20:	4798      	blx	r3
 8000e22:	683b      	ldr	r3, [r7, #0]
 8000e24:	bf00      	nop
 8000e26:	3710      	adds	r7, #16
 8000e28:	46bd      	mov	sp, r7
 8000e2a:	bd80      	pop	{r7, pc}
 8000e2c:	40005800 	andmi	r5, r0, r0, lsl #16
 8000e30:	20000070 	andcs	r0, r0, r0, ror r0
 8000e34:	40005400 	andmi	r5, r0, r0, lsl #8

08000e38 <I2C2_ER_IRQHandler>:
 8000e38:	b580      	push	{r7, lr}
 8000e3a:	b082      	sub	sp, #8
 8000e3c:	af00      	add	r7, sp, #0
 8000e3e:	4b39      	ldr	r3, [pc, #228]	; (8000f24 <I2C2_ER_IRQHandler+0xec>)
 8000e40:	685b      	ldr	r3, [r3, #4]
 8000e42:	f403 7380 	and.w	r3, r3, #256	; 0x100
 8000e46:	607b      	str	r3, [r7, #4]
 8000e48:	4b36      	ldr	r3, [pc, #216]	; (8000f24 <I2C2_ER_IRQHandler+0xec>)
 8000e4a:	695b      	ldr	r3, [r3, #20]
 8000e4c:	f003 0301 	and.w	r3, r3, #1
 8000e50:	603b      	str	r3, [r7, #0]
 8000e52:	683b      	ldr	r3, [r7, #0]
 8000e54:	2b00      	cmp	r3, #0
 8000e56:	d00c      	beq.n	8000e72 <I2C2_ER_IRQHandler+0x3a>
 8000e58:	687b      	ldr	r3, [r7, #4]
 8000e5a:	2b00      	cmp	r3, #0
 8000e5c:	d009      	beq.n	8000e72 <I2C2_ER_IRQHandler+0x3a>
 8000e5e:	4b31      	ldr	r3, [pc, #196]	; (8000f24 <I2C2_ER_IRQHandler+0xec>)
 8000e60:	695b      	ldr	r3, [r3, #20]
 8000e62:	4a30      	ldr	r2, [pc, #192]	; (8000f24 <I2C2_ER_IRQHandler+0xec>)
 8000e64:	f423 7380 	bic.w	r3, r3, #256	; 0x100
 8000e68:	6153      	str	r3, [r2, #20]
 8000e6a:	4b2f      	ldr	r3, [pc, #188]	; (8000f28 <I2C2_ER_IRQHandler+0xf0>)
 8000e6c:	681b      	ldr	r3, [r3, #0]
 8000e6e:	2000      	movs	r0, #0
 8000e70:	4798      	blx	r3
 8000e72:	4b2c      	ldr	r3, [pc, #176]	; (8000f24 <I2C2_ER_IRQHandler+0xec>)
 8000e74:	695b      	ldr	r3, [r3, #20]
 8000e76:	f003 0302 	and.w	r3, r3, #2
 8000e7a:	603b      	str	r3, [r7, #0]
 8000e7c:	683b      	ldr	r3, [r7, #0]
 8000e7e:	2b00      	cmp	r3, #0
 8000e80:	d00c      	beq.n	8000e9c <I2C2_ER_IRQHandler+0x64>
 8000e82:	687b      	ldr	r3, [r7, #4]
 8000e84:	2b00      	cmp	r3, #0
 8000e86:	d009      	beq.n	8000e9c <I2C2_ER_IRQHandler+0x64>
 8000e88:	4b26      	ldr	r3, [pc, #152]	; (8000f24 <I2C2_ER_IRQHandler+0xec>)
 8000e8a:	695b      	ldr	r3, [r3, #20]
 8000e8c:	4a25      	ldr	r2, [pc, #148]	; (8000f24 <I2C2_ER_IRQHandler+0xec>)
 8000e8e:	f423 7300 	bic.w	r3, r3, #512	; 0x200
 8000e92:	6153      	str	r3, [r2, #20]
 8000e94:	4b24      	ldr	r3, [pc, #144]	; (8000f28 <I2C2_ER_IRQHandler+0xf0>)
 8000e96:	681b      	ldr	r3, [r3, #0]
 8000e98:	2001      	movs	r0, #1
 8000e9a:	4798      	blx	r3
 8000e9c:	4b21      	ldr	r3, [pc, #132]	; (8000f24 <I2C2_ER_IRQHandler+0xec>)
 8000e9e:	695b      	ldr	r3, [r3, #20]
 8000ea0:	f003 0304 	and.w	r3, r3, #4
 8000ea4:	603b      	str	r3, [r7, #0]
 8000ea6:	683b      	ldr	r3, [r7, #0]
 8000ea8:	2b00      	cmp	r3, #0
 8000eaa:	d00c      	beq.n	8000ec6 <I2C2_ER_IRQHandler+0x8e>
 8000eac:	687b      	ldr	r3, [r7, #4]
 8000eae:	2b00      	cmp	r3, #0
 8000eb0:	d009      	beq.n	8000ec6 <I2C2_ER_IRQHandler+0x8e>
 8000eb2:	4b1e      	ldr	r3, [pc, #120]	; (8000f2c <I2C2_ER_IRQHandler+0xf4>)
 8000eb4:	699b      	ldr	r3, [r3, #24]
 8000eb6:	4a1d      	ldr	r2, [pc, #116]	; (8000f2c <I2C2_ER_IRQHandler+0xf4>)
 8000eb8:	f423 6380 	bic.w	r3, r3, #1024	; 0x400
 8000ebc:	6193      	str	r3, [r2, #24]
 8000ebe:	4b1a      	ldr	r3, [pc, #104]	; (8000f28 <I2C2_ER_IRQHandler+0xf0>)
 8000ec0:	681b      	ldr	r3, [r3, #0]
 8000ec2:	2002      	movs	r0, #2
 8000ec4:	4798      	blx	r3
 8000ec6:	4b17      	ldr	r3, [pc, #92]	; (8000f24 <I2C2_ER_IRQHandler+0xec>)
 8000ec8:	695b      	ldr	r3, [r3, #20]
 8000eca:	f003 0308 	and.w	r3, r3, #8
 8000ece:	603b      	str	r3, [r7, #0]
 8000ed0:	683b      	ldr	r3, [r7, #0]
 8000ed2:	2b00      	cmp	r3, #0
 8000ed4:	d00c      	beq.n	8000ef0 <I2C2_ER_IRQHandler+0xb8>
 8000ed6:	687b      	ldr	r3, [r7, #4]
 8000ed8:	2b00      	cmp	r3, #0
 8000eda:	d009      	beq.n	8000ef0 <I2C2_ER_IRQHandler+0xb8>
 8000edc:	4b11      	ldr	r3, [pc, #68]	; (8000f24 <I2C2_ER_IRQHandler+0xec>)
 8000ede:	695b      	ldr	r3, [r3, #20]
 8000ee0:	4a10      	ldr	r2, [pc, #64]	; (8000f24 <I2C2_ER_IRQHandler+0xec>)
 8000ee2:	f423 6300 	bic.w	r3, r3, #2048	; 0x800
 8000ee6:	6153      	str	r3, [r2, #20]
 8000ee8:	4b0f      	ldr	r3, [pc, #60]	; (8000f28 <I2C2_ER_IRQHandler+0xf0>)
 8000eea:	681b      	ldr	r3, [r3, #0]
 8000eec:	2003      	movs	r0, #3
 8000eee:	4798      	blx	r3
 8000ef0:	4b0c      	ldr	r3, [pc, #48]	; (8000f24 <I2C2_ER_IRQHandler+0xec>)
 8000ef2:	695b      	ldr	r3, [r3, #20]
 8000ef4:	f003 0320 	and.w	r3, r3, #32
 8000ef8:	603b      	str	r3, [r7, #0]
 8000efa:	683b      	ldr	r3, [r7, #0]
 8000efc:	2b00      	cmp	r3, #0
 8000efe:	d00c      	beq.n	8000f1a <I2C2_ER_IRQHandler+0xe2>
 8000f00:	687b      	ldr	r3, [r7, #4]
 8000f02:	2b00      	cmp	r3, #0
 8000f04:	d009      	beq.n	8000f1a <I2C2_ER_IRQHandler+0xe2>
 8000f06:	4b07      	ldr	r3, [pc, #28]	; (8000f24 <I2C2_ER_IRQHandler+0xec>)
 8000f08:	695b      	ldr	r3, [r3, #20]
 8000f0a:	4a06      	ldr	r2, [pc, #24]	; (8000f24 <I2C2_ER_IRQHandler+0xec>)
 8000f0c:	f423 4380 	bic.w	r3, r3, #16384	; 0x4000
 8000f10:	6153      	str	r3, [r2, #20]
 8000f12:	4b05      	ldr	r3, [pc, #20]	; (8000f28 <I2C2_ER_IRQHandler+0xf0>)
 8000f14:	681b      	ldr	r3, [r3, #0]
 8000f16:	2005      	movs	r0, #5
 8000f18:	4798      	blx	r3
 8000f1a:	bf00      	nop
 8000f1c:	3708      	adds	r7, #8
 8000f1e:	46bd      	mov	sp, r7
 8000f20:	bd80      	pop	{r7, pc}
 8000f22:	bf00      	nop
 8000f24:	40005800 	andmi	r5, r0, r0, lsl #16
 8000f28:	20000078 	andcs	r0, r0, r8, ror r0
 8000f2c:	40005400 	andmi	r5, r0, r0, lsl #8

08000f30 <SPI1_IRQHandler>:
 8000f30:	b580      	push	{r7, lr}
 8000f32:	af00      	add	r7, sp, #0
 8000f34:	4b02      	ldr	r3, [pc, #8]	; (8000f40 <SPI1_IRQHandler+0x10>)
 8000f36:	681b      	ldr	r3, [r3, #0]
 8000f38:	4798      	blx	r3
 8000f3a:	bf00      	nop
 8000f3c:	bd80      	pop	{r7, pc}
 8000f3e:	bf00      	nop
 8000f40:	2000007c 	andcs	r0, r0, ip, ror r0

08000f44 <SPI2_IRQHandler>:
 8000f44:	b580      	push	{r7, lr}
 8000f46:	af00      	add	r7, sp, #0
 8000f48:	4b02      	ldr	r3, [pc, #8]	; (8000f54 <SPI2_IRQHandler+0x10>)
 8000f4a:	685b      	ldr	r3, [r3, #4]
 8000f4c:	4798      	blx	r3
 8000f4e:	bf00      	nop
 8000f50:	bd80      	pop	{r7, pc}
 8000f52:	bf00      	nop
 8000f54:	2000007c 	andcs	r0, r0, ip, ror r0

08000f58 <USART1_IRQHandler>:
 8000f58:	b580      	push	{r7, lr}
 8000f5a:	af00      	add	r7, sp, #0
 8000f5c:	4b02      	ldr	r3, [pc, #8]	; (8000f68 <USART1_IRQHandler+0x10>)
 8000f5e:	681b      	ldr	r3, [r3, #0]
 8000f60:	4798      	blx	r3
 8000f62:	bf00      	nop
 8000f64:	bd80      	pop	{r7, pc}
 8000f66:	bf00      	nop
 8000f68:	2000008c 	andcs	r0, r0, ip, lsl #1

08000f6c <USART2_IRQHandler>:
 8000f6c:	b580      	push	{r7, lr}
 8000f6e:	af00      	add	r7, sp, #0
 8000f70:	4b02      	ldr	r3, [pc, #8]	; (8000f7c <USART2_IRQHandler+0x10>)
 8000f72:	685b      	ldr	r3, [r3, #4]
 8000f74:	4798      	blx	r3
 8000f76:	bf00      	nop
 8000f78:	bd80      	pop	{r7, pc}
 8000f7a:	bf00      	nop
 8000f7c:	2000008c 	andcs	r0, r0, ip, lsl #1

08000f80 <USART3_IRQHandler>:
 8000f80:	b580      	push	{r7, lr}
 8000f82:	af00      	add	r7, sp, #0
 8000f84:	4b02      	ldr	r3, [pc, #8]	; (8000f90 <USART3_IRQHandler+0x10>)
 8000f86:	689b      	ldr	r3, [r3, #8]
 8000f88:	4798      	blx	r3
 8000f8a:	bf00      	nop
 8000f8c:	bd80      	pop	{r7, pc}
 8000f8e:	bf00      	nop
 8000f90:	2000008c 	andcs	r0, r0, ip, lsl #1

08000f94 <CallBackFunction>:
 8000f94:	b480      	push	{r7}
 8000f96:	af00      	add	r7, sp, #0
 8000f98:	4b08      	ldr	r3, [pc, #32]	; (8000fbc <CallBackFunction+0x28>)
 8000f9a:	2201      	movs	r2, #1
 8000f9c:	701a      	strb	r2, [r3, #0]
 8000f9e:	bf00      	nop
 8000fa0:	bf00      	nop
 8000fa2:	bf00      	nop
 8000fa4:	f3ef 8305 	mrs	r3, IPSR
 8000fa8:	4a05      	ldr	r2, [pc, #20]	; (8000fc0 <CallBackFunction+0x2c>)
 8000faa:	6013      	str	r3, [r2, #0]
 8000fac:	bf00      	nop
 8000fae:	bf00      	nop
 8000fb0:	bf00      	nop
 8000fb2:	bf00      	nop
 8000fb4:	46bd      	mov	sp, r7
 8000fb6:	bc80      	pop	{r7}
 8000fb8:	4770      	bx	lr
 8000fba:	bf00      	nop
 8000fbc:	20000098 	mulcs	r0, r8, r0
 8000fc0:	200000a0 	andcs	r0, r0, r0, lsr #1

08000fc4 <main>:
 8000fc4:	b580      	push	{r7, lr}
 8000fc6:	b086      	sub	sp, #24
 8000fc8:	af00      	add	r7, sp, #0
 8000fca:	2301      	movs	r3, #1
 8000fcc:	747b      	strb	r3, [r7, #17]
 8000fce:	2309      	movs	r3, #9
 8000fd0:	713b      	strb	r3, [r7, #4]
 8000fd2:	4b11      	ldr	r3, [pc, #68]	; (8001018 <main+0x54>)
 8000fd4:	60bb      	str	r3, [r7, #8]
 8000fd6:	f44f 7300 	mov.w	r3, #512	; 0x200
 8000fda:	81bb      	strh	r3, [r7, #12]
 8000fdc:	2308      	movs	r3, #8
 8000fde:	73bb      	strb	r3, [r7, #14]
 8000fe0:	2300      	movs	r3, #0
 8000fe2:	73fb      	strb	r3, [r7, #15]
 8000fe4:	2300      	movs	r3, #0
 8000fe6:	743b      	strb	r3, [r7, #16]
 8000fe8:	4b0c      	ldr	r3, [pc, #48]	; (800101c <main+0x58>)
 8000fea:	617b      	str	r3, [r7, #20]
 8000fec:	1d3b      	adds	r3, r7, #4
 8000fee:	4618      	mov	r0, r3
 8000ff0:	f7ff f9c8 	bl	8000384 <MCAL_EXTI_Init>
 8000ff4:	bf00      	nop
 8000ff6:	bf00      	nop
 8000ff8:	bf00      	nop
 8000ffa:	f3ef 8314 	mrs	r3, CONTROL
 8000ffe:	4a08      	ldr	r2, [pc, #32]	; (8001020 <main+0x5c>)
 8001000:	6013      	str	r3, [r2, #0]
 8001002:	bf00      	nop
 8001004:	bf00      	nop
 8001006:	bf00      	nop
 8001008:	4b06      	ldr	r3, [pc, #24]	; (8001024 <main+0x60>)
 800100a:	781b      	ldrb	r3, [r3, #0]
 800100c:	2b00      	cmp	r3, #0
 800100e:	d0fb      	beq.n	8001008 <main+0x44>
 8001010:	4b04      	ldr	r3, [pc, #16]	; (8001024 <main+0x60>)
 8001012:	2200      	movs	r2, #0
 8001014:	701a      	strb	r2, [r3, #0]
 8001016:	e7f7      	b.n	8001008 <main+0x44>
 8001018:	40010c00 	andmi	r0, r1, r0, lsl #24
 800101c:	08000f95 	stmdaeq	r0, {r0, r2, r4, r7, r8, r9, sl, fp}
 8001020:	2000009c 	mulcs	r0, ip, r0
 8001024:	20000098 	mulcs	r0, r8, r0

08001028 <Reset_Handler>:
 8001028:	480d      	ldr	r0, [pc, #52]	; (8001060 <LoopForever+0x2>)
 800102a:	4685      	mov	sp, r0
 800102c:	f3af 8000 	nop.w
 8001030:	480c      	ldr	r0, [pc, #48]	; (8001064 <LoopForever+0x6>)
 8001032:	490d      	ldr	r1, [pc, #52]	; (8001068 <LoopForever+0xa>)
 8001034:	4a0d      	ldr	r2, [pc, #52]	; (800106c <LoopForever+0xe>)
 8001036:	2300      	movs	r3, #0
 8001038:	e002      	b.n	8001040 <LoopCopyDataInit>

0800103a <CopyDataInit>:
 800103a:	58d4      	ldr	r4, [r2, r3]
 800103c:	50c4      	str	r4, [r0, r3]
 800103e:	3304      	adds	r3, #4

08001040 <LoopCopyDataInit>:
 8001040:	18c4      	adds	r4, r0, r3
 8001042:	428c      	cmp	r4, r1
 8001044:	d3f9      	bcc.n	800103a <CopyDataInit>
 8001046:	4a0a      	ldr	r2, [pc, #40]	; (8001070 <LoopForever+0x12>)
 8001048:	4c0a      	ldr	r4, [pc, #40]	; (8001074 <LoopForever+0x16>)
 800104a:	2300      	movs	r3, #0
 800104c:	e001      	b.n	8001052 <LoopFillZerobss>

0800104e <FillZerobss>:
 800104e:	6013      	str	r3, [r2, #0]
 8001050:	3204      	adds	r2, #4

08001052 <LoopFillZerobss>:
 8001052:	42a2      	cmp	r2, r4
 8001054:	d3fb      	bcc.n	800104e <FillZerobss>
 8001056:	f000 f811 	bl	800107c <__libc_init_array>
 800105a:	f7ff ffb3 	bl	8000fc4 <main>

0800105e <LoopForever>:
 800105e:	e7fe      	b.n	800105e <LoopForever>
 8001060:	20005000 	andcs	r5, r0, r0
 8001064:	20000000 	andcs	r0, r0, r0
 8001068:	20000000 	andcs	r0, r0, r0
 800106c:	080010e4 	stmdaeq	r0, {r2, r5, r6, r7, ip}
 8001070:	20000000 	andcs	r0, r0, r0
 8001074:	200000a4 	andcs	r0, r0, r4, lsr #1

08001078 <ADC1_2_IRQHandler>:
 8001078:	e7fe      	b.n	8001078 <ADC1_2_IRQHandler>
	...

0800107c <__libc_init_array>:
 800107c:	b570      	push	{r4, r5, r6, lr}
 800107e:	2500      	movs	r5, #0
 8001080:	4e0c      	ldr	r6, [pc, #48]	; (80010b4 <__libc_init_array+0x38>)
 8001082:	4c0d      	ldr	r4, [pc, #52]	; (80010b8 <__libc_init_array+0x3c>)
 8001084:	1ba4      	subs	r4, r4, r6
 8001086:	10a4      	asrs	r4, r4, #2
 8001088:	42a5      	cmp	r5, r4
 800108a:	d109      	bne.n	80010a0 <__libc_init_array+0x24>
 800108c:	f000 f81a 	bl	80010c4 <_init>
 8001090:	2500      	movs	r5, #0
 8001092:	4e0a      	ldr	r6, [pc, #40]	; (80010bc <__libc_init_array+0x40>)
 8001094:	4c0a      	ldr	r4, [pc, #40]	; (80010c0 <__libc_init_array+0x44>)
 8001096:	1ba4      	subs	r4, r4, r6
 8001098:	10a4      	asrs	r4, r4, #2
 800109a:	42a5      	cmp	r5, r4
 800109c:	d105      	bne.n	80010aa <__libc_init_array+0x2e>
 800109e:	bd70      	pop	{r4, r5, r6, pc}
 80010a0:	f856 3025 	ldr.w	r3, [r6, r5, lsl #2]
 80010a4:	4798      	blx	r3
 80010a6:	3501      	adds	r5, #1
 80010a8:	e7ee      	b.n	8001088 <__libc_init_array+0xc>
 80010aa:	f856 3025 	ldr.w	r3, [r6, r5, lsl #2]
 80010ae:	4798      	blx	r3
 80010b0:	3501      	adds	r5, #1
 80010b2:	e7f2      	b.n	800109a <__libc_init_array+0x1e>
 80010b4:	080010dc 	stmdaeq	r0, {r2, r3, r4, r6, r7, ip}
 80010b8:	080010dc 	stmdaeq	r0, {r2, r3, r4, r6, r7, ip}
 80010bc:	080010dc 	stmdaeq	r0, {r2, r3, r4, r6, r7, ip}
 80010c0:	080010e0 	stmdaeq	r0, {r5, r6, r7, ip}

080010c4 <_init>:
 80010c4:	b5f8      	push	{r3, r4, r5, r6, r7, lr}
 80010c6:	bf00      	nop
 80010c8:	bcf8      	pop	{r3, r4, r5, r6, r7}
 80010ca:	bc08      	pop	{r3}
 80010cc:	469e      	mov	lr, r3
 80010ce:	4770      	bx	lr

080010d0 <_fini>:
 80010d0:	b5f8      	push	{r3, r4, r5, r6, r7, lr}
 80010d2:	bf00      	nop
 80010d4:	bcf8      	pop	{r3, r4, r5, r6, r7}
 80010d6:	bc08      	pop	{r3}
 80010d8:	469e      	mov	lr, r3
 80010da:	4770      	bx	lr
